	.text
	.file	"Example.cpp"
	.globl	main                    # -- Begin function main
	.p2align	4, 0x90
	.type	main,@function
main:                                   # @main
.Lfunc_begin0:
	.file	1 "Example.cpp"
	.loc	1 35 0                  # Example.cpp:35:0
	.cfi_startproc
# %bb.0:
	pushq	%rbp
	.cfi_def_cfa_offset 16
	.cfi_offset %rbp, -16
	movq	%rsp, %rbp
	.cfi_def_cfa_register %rbp
	subq	$32, %rsp
	movl	$0, -20(%rbp)
.Ltmp0:
	.loc	1 36 12 prologue_end    # Example.cpp:36:12
	movl	$3200, %edi             # imm = 0xC80
	callq	_Znam
	.loc	1 36 8 is_stmt 0        # Example.cpp:36:8
	movq	%rax, -16(%rbp)
	.loc	1 37 18 is_stmt 1       # Example.cpp:37:18
	movl	$1, 332(%rax)
	.loc	1 38 20                 # Example.cpp:38:20
	movl	$328, %edi              # imm = 0x148
	addq	-16(%rbp), %rdi
	.loc	1 38 10 is_stmt 0       # Example.cpp:38:10
	movq	%rdi, -8(%rbp)
	.loc	1 40 5 is_stmt 1        # Example.cpp:40:5
	xorl	%esi, %esi
	callq	_ZL8getValueIiET_PS0_i
	.loc	1 41 19                 # Example.cpp:41:19
	movq	-8(%rbp), %rdi
	.loc	1 41 5 is_stmt 0        # Example.cpp:41:5
	movl	$1, %esi
	callq	_ZL8getValueIiET_PS0_i
	.loc	1 42 19 is_stmt 1       # Example.cpp:42:19
	movq	-8(%rbp), %rdi
	.loc	1 42 5 is_stmt 0        # Example.cpp:42:5
	movl	$2, %esi
	callq	_ZL8getValueIiET_PS0_i
	.loc	1 43 19 is_stmt 1       # Example.cpp:43:19
	movq	-8(%rbp), %rdi
	.loc	1 43 5 is_stmt 0        # Example.cpp:43:5
	movl	$3, %esi
	callq	_ZL8getValueIiET_PS0_i
	.loc	1 44 19 is_stmt 1       # Example.cpp:44:19
	movq	-8(%rbp), %rdi
	.loc	1 44 5 is_stmt 0        # Example.cpp:44:5
	movl	$-1, %esi
	callq	_ZL8getValueIiET_PS0_i
	.loc	1 46 27 is_stmt 1       # Example.cpp:46:27
	movq	-8(%rbp), %rdi
	.loc	1 46 13 is_stmt 0       # Example.cpp:46:13
	movq	%rdi, -32(%rbp)
	.loc	1 48 5 is_stmt 1        # Example.cpp:48:5
	xorl	%esi, %esi
	callq	_ZL8getValueIdET_PS0_i
	.loc	1 50 14                 # Example.cpp:50:14
	movq	-16(%rbp), %rdi
	.loc	1 50 5 is_stmt 0        # Example.cpp:50:5
	testq	%rdi, %rdi
	je	.LBB0_2
# %bb.1:
	.loc	1 50 5 discriminator 1  # Example.cpp:50:5
	callq	_ZdaPv
.LBB0_2:
	.loc	1 52 19 is_stmt 1       # Example.cpp:52:19
	movq	-8(%rbp), %rdi
	.loc	1 52 5 is_stmt 0        # Example.cpp:52:5
	xorl	%esi, %esi
	callq	_ZL8getValueIiET_PS0_i
	.loc	1 54 5 is_stmt 1        # Example.cpp:54:5
	xorl	%eax, %eax
	addq	$32, %rsp
	popq	%rbp
	retq
.Ltmp1:
.Lfunc_end0:
	.size	main, .Lfunc_end0-main
	.cfi_endproc
                                        # -- End function
	.p2align	4, 0x90         # -- Begin function _ZL8getValueIiET_PS0_i
	.type	_ZL8getValueIiET_PS0_i,@function
_ZL8getValueIiET_PS0_i:                 # @_ZL8getValueIiET_PS0_i
.Lfunc_begin1:
	.loc	1 30 0                  # Example.cpp:30:0
	.cfi_startproc
# %bb.0:
	pushq	%rbp
	.cfi_def_cfa_offset 16
	.cfi_offset %rbp, -16
	movq	%rsp, %rbp
	.cfi_def_cfa_register %rbp
	movq	%rdi, -16(%rbp)
	movl	%esi, -4(%rbp)
.Ltmp2:
	.loc	1 31 12 prologue_end    # Example.cpp:31:12
	movslq	-4(%rbp), %rax
	movl	(%rdi,%rax,4), %eax
	.loc	1 31 5 is_stmt 0        # Example.cpp:31:5
	popq	%rbp
	retq
.Ltmp3:
.Lfunc_end1:
	.size	_ZL8getValueIiET_PS0_i, .Lfunc_end1-_ZL8getValueIiET_PS0_i
	.cfi_endproc
                                        # -- End function
	.p2align	4, 0x90         # -- Begin function _ZL8getValueIdET_PS0_i
	.type	_ZL8getValueIdET_PS0_i,@function
_ZL8getValueIdET_PS0_i:                 # @_ZL8getValueIdET_PS0_i
.Lfunc_begin2:
	.loc	1 30 0 is_stmt 1        # Example.cpp:30:0
	.cfi_startproc
# %bb.0:
	pushq	%rbp
	.cfi_def_cfa_offset 16
	.cfi_offset %rbp, -16
	movq	%rsp, %rbp
	.cfi_def_cfa_register %rbp
	movq	%rdi, -16(%rbp)
	movl	%esi, -4(%rbp)
.Ltmp4:
	.loc	1 31 12 prologue_end    # Example.cpp:31:12
	movslq	-4(%rbp), %rax
	movsd	(%rdi,%rax,8), %xmm0    # xmm0 = mem[0],zero
	.loc	1 31 5 is_stmt 0        # Example.cpp:31:5
	popq	%rbp
	retq
.Ltmp5:
.Lfunc_end2:
	.size	_ZL8getValueIdET_PS0_i, .Lfunc_end2-_ZL8getValueIdET_PS0_i
	.cfi_endproc
                                        # -- End function
	.section	".note.GNU-stack","",@progbits