
Example.out:     file format elf64-x86-64

Sections:
Idx Name          Size      VMA               LMA               File off  Algn
  0 .interp       0000001c  0000000000400430  0000000000400430  00000430  2**0
                  CONTENTS, ALLOC, LOAD, READONLY, DATA
  1 .note.ABI-tag 00000020  000000000040044c  000000000040044c  0000044c  2**2
                  CONTENTS, ALLOC, LOAD, READONLY, DATA
  2 .hash         0000068c  0000000000400470  0000000000400470  00000470  2**3
                  CONTENTS, ALLOC, LOAD, READONLY, DATA
  3 .gnu.hash     00000788  0000000000400b00  0000000000400b00  00000b00  2**3
                  CONTENTS, ALLOC, LOAD, READONLY, DATA
  4 .dynsym       000014a0  0000000000401288  0000000000401288  00001288  2**3
                  CONTENTS, ALLOC, LOAD, READONLY, DATA
  5 .dynstr       00000f6b  0000000000402728  0000000000402728  00002728  2**0
                  CONTENTS, ALLOC, LOAD, READONLY, DATA
  6 .gnu.version  000001b8  0000000000403694  0000000000403694  00003694  2**1
                  CONTENTS, ALLOC, LOAD, READONLY, DATA
  7 .gnu.version_r 00000070  0000000000403850  0000000000403850  00003850  2**3
                  CONTENTS, ALLOC, LOAD, READONLY, DATA
  8 .rela.dyn     00000048  00000000004038c0  00000000004038c0  000038c0  2**3
                  CONTENTS, ALLOC, LOAD, READONLY, DATA
  9 .rela.plt     000004e0  0000000000403908  0000000000403908  00003908  2**3
                  CONTENTS, ALLOC, LOAD, READONLY, DATA
 10 .init         00000017  0000000000403de8  0000000000403de8  00003de8  2**2
                  CONTENTS, ALLOC, LOAD, READONLY, CODE
 11 .plt          00000350  0000000000403e00  0000000000403e00  00003e00  2**4
                  CONTENTS, ALLOC, LOAD, READONLY, CODE
 12 .text         00006122  0000000000404150  0000000000404150  00004150  2**4
                  CONTENTS, ALLOC, LOAD, READONLY, CODE
 13 .fini         00000009  000000000040a274  000000000040a274  0000a274  2**2
                  CONTENTS, ALLOC, LOAD, READONLY, CODE
 14 .rodata       00002eea  000000000040a280  000000000040a280  0000a280  2**6
                  CONTENTS, ALLOC, LOAD, READONLY, DATA
 15 .eh_frame_hdr 000002dc  000000000040d16c  000000000040d16c  0000d16c  2**2
                  CONTENTS, ALLOC, LOAD, READONLY, DATA
 16 .eh_frame     00000f48  000000000040d448  000000000040d448  0000d448  2**3
                  CONTENTS, ALLOC, LOAD, READONLY, DATA
 17 .preinit_array 00000008  000000000040fa50  000000000040fa50  0000ea50  2**3
                  CONTENTS, ALLOC, LOAD, DATA
 18 .init_array   00000018  000000000040fa58  000000000040fa58  0000ea58  2**3
                  CONTENTS, ALLOC, LOAD, DATA
 19 .fini_array   00000010  000000000040fa70  000000000040fa70  0000ea70  2**3
                  CONTENTS, ALLOC, LOAD, DATA
 20 .data.rel.ro  00000310  000000000040fa80  000000000040fa80  0000ea80  2**6
                  CONTENTS, ALLOC, LOAD, DATA
 21 .dynamic      00000260  000000000040fd90  000000000040fd90  0000ed90  2**3
                  CONTENTS, ALLOC, LOAD, DATA
 22 .got          00000010  000000000040fff0  000000000040fff0  0000eff0  2**3
                  CONTENTS, ALLOC, LOAD, DATA
 23 .got.plt      000001b8  0000000000410000  0000000000410000  0000f000  2**3
                  CONTENTS, ALLOC, LOAD, DATA
 24 .data         00000034  00000000004101b8  00000000004101b8  0000f1b8  2**3
                  CONTENTS, ALLOC, LOAD, DATA
 25 .bss          00001548  0000000000410200  0000000000410200  0000f1ec  2**5
                  ALLOC
 26 .comment      00000086  0000000000000000  0000000000000000  00017f00  2**0
                  CONTENTS, READONLY
 27 .debug_pubnames 00000042  0000000000000000  0000000000000000  00017f86  2**0
                  CONTENTS, READONLY, DEBUGGING
 28 .debug_info   000001ff  0000000000000000  0000000000000000  00017fc8  2**0
                  CONTENTS, READONLY, DEBUGGING
 29 .debug_abbrev 000000f7  0000000000000000  0000000000000000  000181c7  2**0
                  CONTENTS, READONLY, DEBUGGING
 30 .debug_line   000000ab  0000000000000000  0000000000000000  000182be  2**0
                  CONTENTS, READONLY, DEBUGGING
 31 .debug_str    0000010d  0000000000000000  0000000000000000  00018369  2**0
                  CONTENTS, READONLY, DEBUGGING
 32 .debug_loc    0000006c  0000000000000000  0000000000000000  00018476  2**0
                  CONTENTS, READONLY, DEBUGGING
 33 .debug_macinfo 00000001  0000000000000000  0000000000000000  000184e2  2**0
                  CONTENTS, READONLY, DEBUGGING
 34 .debug_pubtypes 00000057  0000000000000000  0000000000000000  000184e3  2**0
                  CONTENTS, READONLY, DEBUGGING
 35 tyche_symbols_section_0 00000028  0000000004000440  0000000004000440  0000f440  2**6
                  CONTENTS, ALLOC, LOAD, READONLY, DATA
 36 tyche_symbols_section_1 00000028  0000000004100440  0000000004100440  00010440  2**6
                  CONTENTS, ALLOC, LOAD, READONLY, DATA
 37 tyche_symbols_section_2 00000028  0000000004200440  0000000004200440  00011440  2**6
                  CONTENTS, ALLOC, LOAD, READONLY, DATA
 38 tyche_symbols_section_3 00000028  0000000004300440  0000000004300440  00012440  2**6
                  CONTENTS, ALLOC, LOAD, READONLY, DATA
 39 tyche_symbols_section_4 00000028  0000000004400440  0000000004400440  00013440  2**6
                  CONTENTS, ALLOC, LOAD, READONLY, DATA
 40 tyche_symbols_section_5 00000028  0000000004500440  0000000004500440  00014440  2**6
                  CONTENTS, ALLOC, LOAD, READONLY, DATA
 41 tyche_symbols_section_6 00000028  0000000004600440  0000000004600440  00015440  2**6
                  CONTENTS, ALLOC, LOAD, READONLY, DATA
 42 tyche_symbols_section_7 00000028  0000000004700440  0000000004700440  00016440  2**6
                  CONTENTS, ALLOC, LOAD, READONLY, DATA
 43 LOWFAT_CONST_DATA 00000ad0  0000060000000430  0000060000000430  00017430  2**4
                  CONTENTS, ALLOC, LOAD, READONLY, DATA

Disassembly of section .init:

0000000000403de8 <_init>:
  403de8:	48 83 ec 08          	sub    $0x8,%rsp
  403dec:	48 8b 05 05 c2 00 00 	mov    0xc205(%rip),%rax        # 40fff8 <__gmon_start__>
  403df3:	48 85 c0             	test   %rax,%rax
  403df6:	74 02                	je     403dfa <_init+0x12>
  403df8:	ff d0                	callq  *%rax
  403dfa:	48 83 c4 08          	add    $0x8,%rsp
  403dfe:	c3                   	retq   

Disassembly of section .plt:

0000000000403e00 <.plt>:
  403e00:	ff 35 02 c2 00 00    	pushq  0xc202(%rip)        # 410008 <_GLOBAL_OFFSET_TABLE_+0x8>
  403e06:	ff 25 04 c2 00 00    	jmpq   *0xc204(%rip)        # 410010 <_GLOBAL_OFFSET_TABLE_+0x10>
  403e0c:	0f 1f 40 00          	nopl   0x0(%rax)

0000000000403e10 <__errno_location@plt>:
  403e10:	ff 25 02 c2 00 00    	jmpq   *0xc202(%rip)        # 410018 <__errno_location@GLIBC_2.2.5>
  403e16:	68 00 00 00 00       	pushq  $0x0
  403e1b:	e9 e0 ff ff ff       	jmpq   403e00 <.plt>

0000000000403e20 <strerror@plt>:
  403e20:	ff 25 fa c1 00 00    	jmpq   *0xc1fa(%rip)        # 410020 <strerror@GLIBC_2.2.5>
  403e26:	68 01 00 00 00       	pushq  $0x1
  403e2b:	e9 d0 ff ff ff       	jmpq   403e00 <.plt>

0000000000403e30 <strchr@plt>:
  403e30:	ff 25 f2 c1 00 00    	jmpq   *0xc1f2(%rip)        # 410028 <strchr@GLIBC_2.2.5>
  403e36:	68 02 00 00 00       	pushq  $0x2
  403e3b:	e9 c0 ff ff ff       	jmpq   403e00 <.plt>

0000000000403e40 <strlen@plt>:
  403e40:	ff 25 ea c1 00 00    	jmpq   *0xc1ea(%rip)        # 410030 <strlen@GLIBC_2.2.5>
  403e46:	68 03 00 00 00       	pushq  $0x3
  403e4b:	e9 b0 ff ff ff       	jmpq   403e00 <.plt>

0000000000403e50 <unlink@plt>:
  403e50:	ff 25 e2 c1 00 00    	jmpq   *0xc1e2(%rip)        # 410038 <unlink@GLIBC_2.2.5>
  403e56:	68 04 00 00 00       	pushq  $0x4
  403e5b:	e9 a0 ff ff ff       	jmpq   403e00 <.plt>

0000000000403e60 <strncmp@plt>:
  403e60:	ff 25 da c1 00 00    	jmpq   *0xc1da(%rip)        # 410040 <strncmp@GLIBC_2.2.5>
  403e66:	68 05 00 00 00       	pushq  $0x5
  403e6b:	e9 90 ff ff ff       	jmpq   403e00 <.plt>

0000000000403e70 <memset@plt>:
  403e70:	ff 25 d2 c1 00 00    	jmpq   *0xc1d2(%rip)        # 410048 <memset@GLIBC_2.2.5>
  403e76:	68 06 00 00 00       	pushq  $0x6
  403e7b:	e9 80 ff ff ff       	jmpq   403e00 <.plt>

0000000000403e80 <abort@plt>:
  403e80:	ff 25 ca c1 00 00    	jmpq   *0xc1ca(%rip)        # 410050 <abort@GLIBC_2.2.5>
  403e86:	68 07 00 00 00       	pushq  $0x7
  403e8b:	e9 70 ff ff ff       	jmpq   403e00 <.plt>

0000000000403e90 <getrusage@plt>:
  403e90:	ff 25 c2 c1 00 00    	jmpq   *0xc1c2(%rip)        # 410058 <getrusage@GLIBC_2.2.5>
  403e96:	68 08 00 00 00       	pushq  $0x8
  403e9b:	e9 60 ff ff ff       	jmpq   403e00 <.plt>

0000000000403ea0 <fcntl@plt>:
  403ea0:	ff 25 ba c1 00 00    	jmpq   *0xc1ba(%rip)        # 410060 <fcntl@GLIBC_2.2.5>
  403ea6:	68 09 00 00 00       	pushq  $0x9
  403eab:	e9 50 ff ff ff       	jmpq   403e00 <.plt>

0000000000403eb0 <mincore@plt>:
  403eb0:	ff 25 b2 c1 00 00    	jmpq   *0xc1b2(%rip)        # 410068 <mincore@GLIBC_2.2.5>
  403eb6:	68 0a 00 00 00       	pushq  $0xa
  403ebb:	e9 40 ff ff ff       	jmpq   403e00 <.plt>

0000000000403ec0 <_IO_putc@plt>:
  403ec0:	ff 25 aa c1 00 00    	jmpq   *0xc1aa(%rip)        # 410070 <_IO_putc@GLIBC_2.2.5>
  403ec6:	68 0b 00 00 00       	pushq  $0xb
  403ecb:	e9 30 ff ff ff       	jmpq   403e00 <.plt>

0000000000403ed0 <sysconf@plt>:
  403ed0:	ff 25 a2 c1 00 00    	jmpq   *0xc1a2(%rip)        # 410078 <sysconf@GLIBC_2.2.5>
  403ed6:	68 0c 00 00 00       	pushq  $0xc
  403edb:	e9 20 ff ff ff       	jmpq   403e00 <.plt>

0000000000403ee0 <sscanf@plt>:
  403ee0:	ff 25 9a c1 00 00    	jmpq   *0xc19a(%rip)        # 410080 <sscanf@GLIBC_2.2.5>
  403ee6:	68 0d 00 00 00       	pushq  $0xd
  403eeb:	e9 10 ff ff ff       	jmpq   403e00 <.plt>

0000000000403ef0 <open@plt>:
  403ef0:	ff 25 92 c1 00 00    	jmpq   *0xc192(%rip)        # 410088 <open@GLIBC_2.2.5>
  403ef6:	68 0e 00 00 00       	pushq  $0xe
  403efb:	e9 00 ff ff ff       	jmpq   403e00 <.plt>

0000000000403f00 <pthread_attr_getstack@plt>:
  403f00:	ff 25 8a c1 00 00    	jmpq   *0xc18a(%rip)        # 410090 <pthread_attr_getstack@GLIBC_2.2.5>
  403f06:	68 0f 00 00 00       	pushq  $0xf
  403f0b:	e9 f0 fe ff ff       	jmpq   403e00 <.plt>

0000000000403f10 <pthread_mutex_unlock@plt>:
  403f10:	ff 25 82 c1 00 00    	jmpq   *0xc182(%rip)        # 410098 <pthread_mutex_unlock@GLIBC_2.2.5>
  403f16:	68 10 00 00 00       	pushq  $0x10
  403f1b:	e9 e0 fe ff ff       	jmpq   403e00 <.plt>

0000000000403f20 <memcpy@plt>:
  403f20:	ff 25 7a c1 00 00    	jmpq   *0xc17a(%rip)        # 4100a0 <memcpy@GLIBC_2.14>
  403f26:	68 11 00 00 00       	pushq  $0x11
  403f2b:	e9 d0 fe ff ff       	jmpq   403e00 <.plt>

0000000000403f30 <__libc_realloc@plt>:
  403f30:	ff 25 72 c1 00 00    	jmpq   *0xc172(%rip)        # 4100a8 <__libc_realloc@GLIBC_2.2.5>
  403f36:	68 12 00 00 00       	pushq  $0x12
  403f3b:	e9 c0 fe ff ff       	jmpq   403e00 <.plt>

0000000000403f40 <raise@plt>:
  403f40:	ff 25 6a c1 00 00    	jmpq   *0xc16a(%rip)        # 4100b0 <raise@GLIBC_2.2.5>
  403f46:	68 13 00 00 00       	pushq  $0x13
  403f4b:	e9 b0 fe ff ff       	jmpq   403e00 <.plt>

0000000000403f50 <fileno@plt>:
  403f50:	ff 25 62 c1 00 00    	jmpq   *0xc162(%rip)        # 4100b8 <fileno@GLIBC_2.2.5>
  403f56:	68 14 00 00 00       	pushq  $0x14
  403f5b:	e9 a0 fe ff ff       	jmpq   403e00 <.plt>

0000000000403f60 <freopen@plt>:
  403f60:	ff 25 5a c1 00 00    	jmpq   *0xc15a(%rip)        # 4100c0 <freopen@GLIBC_2.2.5>
  403f66:	68 15 00 00 00       	pushq  $0x15
  403f6b:	e9 90 fe ff ff       	jmpq   403e00 <.plt>

0000000000403f70 <readlink@plt>:
  403f70:	ff 25 52 c1 00 00    	jmpq   *0xc152(%rip)        # 4100c8 <readlink@GLIBC_2.2.5>
  403f76:	68 16 00 00 00       	pushq  $0x16
  403f7b:	e9 80 fe ff ff       	jmpq   403e00 <.plt>

0000000000403f80 <fflush@plt>:
  403f80:	ff 25 4a c1 00 00    	jmpq   *0xc14a(%rip)        # 4100d0 <fflush@GLIBC_2.2.5>
  403f86:	68 17 00 00 00       	pushq  $0x17
  403f8b:	e9 70 fe ff ff       	jmpq   403e00 <.plt>

0000000000403f90 <madvise@plt>:
  403f90:	ff 25 42 c1 00 00    	jmpq   *0xc142(%rip)        # 4100d8 <madvise@GLIBC_2.2.5>
  403f96:	68 18 00 00 00       	pushq  $0x18
  403f9b:	e9 60 fe ff ff       	jmpq   403e00 <.plt>

0000000000403fa0 <exit@plt>:
  403fa0:	ff 25 3a c1 00 00    	jmpq   *0xc13a(%rip)        # 4100e0 <exit@GLIBC_2.2.5>
  403fa6:	68 19 00 00 00       	pushq  $0x19
  403fab:	e9 50 fe ff ff       	jmpq   403e00 <.plt>

0000000000403fb0 <pthread_attr_init@plt>:
  403fb0:	ff 25 32 c1 00 00    	jmpq   *0xc132(%rip)        # 4100e8 <pthread_attr_init@GLIBC_2.2.5>
  403fb6:	68 1a 00 00 00       	pushq  $0x1a
  403fbb:	e9 40 fe ff ff       	jmpq   403e00 <.plt>

0000000000403fc0 <getenv@plt>:
  403fc0:	ff 25 2a c1 00 00    	jmpq   *0xc12a(%rip)        # 4100f0 <getenv@GLIBC_2.2.5>
  403fc6:	68 1b 00 00 00       	pushq  $0x1b
  403fcb:	e9 30 fe ff ff       	jmpq   403e00 <.plt>

0000000000403fd0 <fputc@plt>:
  403fd0:	ff 25 22 c1 00 00    	jmpq   *0xc122(%rip)        # 4100f8 <fputc@GLIBC_2.2.5>
  403fd6:	68 1c 00 00 00       	pushq  $0x1c
  403fdb:	e9 20 fe ff ff       	jmpq   403e00 <.plt>

0000000000403fe0 <sigaction@plt>:
  403fe0:	ff 25 1a c1 00 00    	jmpq   *0xc11a(%rip)        # 410100 <sigaction@GLIBC_2.2.5>
  403fe6:	68 1d 00 00 00       	pushq  $0x1d
  403feb:	e9 10 fe ff ff       	jmpq   403e00 <.plt>

0000000000403ff0 <vfprintf@plt>:
  403ff0:	ff 25 12 c1 00 00    	jmpq   *0xc112(%rip)        # 410108 <vfprintf@GLIBC_2.2.5>
  403ff6:	68 1e 00 00 00       	pushq  $0x1e
  403ffb:	e9 00 fe ff ff       	jmpq   403e00 <.plt>

0000000000404000 <__libc_free@plt>:
  404000:	ff 25 0a c1 00 00    	jmpq   *0xc10a(%rip)        # 410110 <__libc_free@GLIBC_2.2.5>
  404006:	68 1f 00 00 00       	pushq  $0x1f
  40400b:	e9 f0 fd ff ff       	jmpq   403e00 <.plt>

0000000000404010 <ftruncate@plt>:
  404010:	ff 25 02 c1 00 00    	jmpq   *0xc102(%rip)        # 410118 <ftruncate@GLIBC_2.2.5>
  404016:	68 20 00 00 00       	pushq  $0x20
  40401b:	e9 e0 fd ff ff       	jmpq   403e00 <.plt>

0000000000404020 <strcmp@plt>:
  404020:	ff 25 fa c0 00 00    	jmpq   *0xc0fa(%rip)        # 410120 <strcmp@GLIBC_2.2.5>
  404026:	68 21 00 00 00       	pushq  $0x21
  40402b:	e9 d0 fd ff ff       	jmpq   403e00 <.plt>

0000000000404030 <fprintf@plt>:
  404030:	ff 25 f2 c0 00 00    	jmpq   *0xc0f2(%rip)        # 410128 <fprintf@GLIBC_2.2.5>
  404036:	68 22 00 00 00       	pushq  $0x22
  40403b:	e9 c0 fd ff ff       	jmpq   403e00 <.plt>

0000000000404040 <read@plt>:
  404040:	ff 25 ea c0 00 00    	jmpq   *0xc0ea(%rip)        # 410130 <read@GLIBC_2.2.5>
  404046:	68 23 00 00 00       	pushq  $0x23
  40404b:	e9 b0 fd ff ff       	jmpq   403e00 <.plt>

0000000000404050 <pthread_mutex_lock@plt>:
  404050:	ff 25 e2 c0 00 00    	jmpq   *0xc0e2(%rip)        # 410138 <pthread_mutex_lock@GLIBC_2.2.5>
  404056:	68 24 00 00 00       	pushq  $0x24
  40405b:	e9 a0 fd ff ff       	jmpq   403e00 <.plt>

0000000000404060 <backtrace@plt>:
  404060:	ff 25 da c0 00 00    	jmpq   *0xc0da(%rip)        # 410140 <backtrace@GLIBC_2.2.5>
  404066:	68 25 00 00 00       	pushq  $0x25
  40406b:	e9 90 fd ff ff       	jmpq   403e00 <.plt>

0000000000404070 <backtrace_symbols@plt>:
  404070:	ff 25 d2 c0 00 00    	jmpq   *0xc0d2(%rip)        # 410148 <backtrace_symbols@GLIBC_2.2.5>
  404076:	68 26 00 00 00       	pushq  $0x26
  40407b:	e9 80 fd ff ff       	jmpq   403e00 <.plt>

0000000000404080 <pthread_mutex_init@plt>:
  404080:	ff 25 ca c0 00 00    	jmpq   *0xc0ca(%rip)        # 410150 <pthread_mutex_init@GLIBC_2.2.5>
  404086:	68 27 00 00 00       	pushq  $0x27
  40408b:	e9 70 fd ff ff       	jmpq   403e00 <.plt>

0000000000404090 <strnlen@plt>:
  404090:	ff 25 c2 c0 00 00    	jmpq   *0xc0c2(%rip)        # 410158 <strnlen@GLIBC_2.2.5>
  404096:	68 28 00 00 00       	pushq  $0x28
  40409b:	e9 60 fd ff ff       	jmpq   403e00 <.plt>

00000000004040a0 <mprotect@plt>:
  4040a0:	ff 25 ba c0 00 00    	jmpq   *0xc0ba(%rip)        # 410160 <mprotect@GLIBC_2.2.5>
  4040a6:	68 29 00 00 00       	pushq  $0x29
  4040ab:	e9 50 fd ff ff       	jmpq   403e00 <.plt>

00000000004040b0 <snprintf@plt>:
  4040b0:	ff 25 b2 c0 00 00    	jmpq   *0xc0b2(%rip)        # 410168 <snprintf@GLIBC_2.2.5>
  4040b6:	68 2a 00 00 00       	pushq  $0x2a
  4040bb:	e9 40 fd ff ff       	jmpq   403e00 <.plt>

00000000004040c0 <memmove@plt>:
  4040c0:	ff 25 aa c0 00 00    	jmpq   *0xc0aa(%rip)        # 410170 <memmove@GLIBC_2.2.5>
  4040c6:	68 2b 00 00 00       	pushq  $0x2b
  4040cb:	e9 30 fd ff ff       	jmpq   403e00 <.plt>

00000000004040d0 <__libc_malloc@plt>:
  4040d0:	ff 25 a2 c0 00 00    	jmpq   *0xc0a2(%rip)        # 410178 <__libc_malloc@GLIBC_2.2.5>
  4040d6:	68 2c 00 00 00       	pushq  $0x2c
  4040db:	e9 20 fd ff ff       	jmpq   403e00 <.plt>

00000000004040e0 <isatty@plt>:
  4040e0:	ff 25 9a c0 00 00    	jmpq   *0xc09a(%rip)        # 410180 <isatty@GLIBC_2.2.5>
  4040e6:	68 2d 00 00 00       	pushq  $0x2d
  4040eb:	e9 10 fd ff ff       	jmpq   403e00 <.plt>

00000000004040f0 <mmap@plt>:
  4040f0:	ff 25 92 c0 00 00    	jmpq   *0xc092(%rip)        # 410188 <mmap@GLIBC_2.2.5>
  4040f6:	68 2e 00 00 00       	pushq  $0x2e
  4040fb:	e9 00 fd ff ff       	jmpq   403e00 <.plt>

0000000000404100 <dlsym@plt>:
  404100:	ff 25 8a c0 00 00    	jmpq   *0xc08a(%rip)        # 410190 <dlsym@GLIBC_2.2.5>
  404106:	68 2f 00 00 00       	pushq  $0x2f
  40410b:	e9 f0 fc ff ff       	jmpq   403e00 <.plt>

0000000000404110 <sigaltstack@plt>:
  404110:	ff 25 82 c0 00 00    	jmpq   *0xc082(%rip)        # 410198 <sigaltstack@GLIBC_2.2.5>
  404116:	68 30 00 00 00       	pushq  $0x30
  40411b:	e9 e0 fc ff ff       	jmpq   403e00 <.plt>

0000000000404120 <fwrite@plt>:
  404120:	ff 25 7a c0 00 00    	jmpq   *0xc07a(%rip)        # 4101a0 <fwrite@GLIBC_2.2.5>
  404126:	68 31 00 00 00       	pushq  $0x31
  40412b:	e9 d0 fc ff ff       	jmpq   403e00 <.plt>

0000000000404130 <close@plt>:
  404130:	ff 25 72 c0 00 00    	jmpq   *0xc072(%rip)        # 4101a8 <close@GLIBC_2.2.5>
  404136:	68 32 00 00 00       	pushq  $0x32
  40413b:	e9 c0 fc ff ff       	jmpq   403e00 <.plt>

0000000000404140 <pthread_attr_setstack@plt>:
  404140:	ff 25 6a c0 00 00    	jmpq   *0xc06a(%rip)        # 4101b0 <pthread_attr_setstack@GLIBC_2.2.5>
  404146:	68 33 00 00 00       	pushq  $0x33
  40414b:	e9 b0 fc ff ff       	jmpq   403e00 <.plt>

Disassembly of section .text:

0000000000404150 <_start>:
  404150:	31 ed                	xor    %ebp,%ebp
  404152:	49 89 d1             	mov    %rdx,%r9
  404155:	5e                   	pop    %rsi
  404156:	48 89 e2             	mov    %rsp,%rdx
  404159:	48 83 e4 f0          	and    $0xfffffffffffffff0,%rsp
  40415d:	50                   	push   %rax
  40415e:	54                   	push   %rsp
  40415f:	49 c7 c0 70 a2 40 00 	mov    $0x40a270,%r8
  404166:	48 c7 c1 00 a2 40 00 	mov    $0x40a200,%rcx
  40416d:	48 c7 c7 60 a0 40 00 	mov    $0x40a060,%rdi
  404174:	ff 15 76 be 00 00    	callq  *0xbe76(%rip)        # 40fff0 <__libc_start_main@GLIBC_2.2.5>
  40417a:	f4                   	hlt    
  40417b:	0f 1f 44 00 00       	nopl   0x0(%rax,%rax,1)

0000000000404180 <_dl_relocate_static_pie>:
  404180:	f3 c3                	repz retq 
  404182:	66 2e 0f 1f 84 00 00 	nopw   %cs:0x0(%rax,%rax,1)
  404189:	00 00 00 
  40418c:	0f 1f 40 00          	nopl   0x0(%rax)

0000000000404190 <deregister_tm_clones>:
  404190:	b8 f0 01 41 00       	mov    $0x4101f0,%eax
  404195:	48 3d f0 01 41 00    	cmp    $0x4101f0,%rax
  40419b:	74 13                	je     4041b0 <deregister_tm_clones+0x20>
  40419d:	b8 00 00 00 00       	mov    $0x0,%eax
  4041a2:	48 85 c0             	test   %rax,%rax
  4041a5:	74 09                	je     4041b0 <deregister_tm_clones+0x20>
  4041a7:	bf f0 01 41 00       	mov    $0x4101f0,%edi
  4041ac:	ff e0                	jmpq   *%rax
  4041ae:	66 90                	xchg   %ax,%ax
  4041b0:	c3                   	retq   
  4041b1:	0f 1f 44 00 00       	nopl   0x0(%rax,%rax,1)
  4041b6:	66 2e 0f 1f 84 00 00 	nopw   %cs:0x0(%rax,%rax,1)
  4041bd:	00 00 00 

00000000004041c0 <register_tm_clones>:
  4041c0:	be f0 01 41 00       	mov    $0x4101f0,%esi
  4041c5:	48 81 ee f0 01 41 00 	sub    $0x4101f0,%rsi
  4041cc:	48 c1 fe 03          	sar    $0x3,%rsi
  4041d0:	48 89 f0             	mov    %rsi,%rax
  4041d3:	48 c1 e8 3f          	shr    $0x3f,%rax
  4041d7:	48 01 c6             	add    %rax,%rsi
  4041da:	48 d1 fe             	sar    %rsi
  4041dd:	74 11                	je     4041f0 <register_tm_clones+0x30>
  4041df:	b8 00 00 00 00       	mov    $0x0,%eax
  4041e4:	48 85 c0             	test   %rax,%rax
  4041e7:	74 07                	je     4041f0 <register_tm_clones+0x30>
  4041e9:	bf f0 01 41 00       	mov    $0x4101f0,%edi
  4041ee:	ff e0                	jmpq   *%rax
  4041f0:	c3                   	retq   
  4041f1:	0f 1f 44 00 00       	nopl   0x0(%rax,%rax,1)
  4041f6:	66 2e 0f 1f 84 00 00 	nopw   %cs:0x0(%rax,%rax,1)
  4041fd:	00 00 00 

0000000000404200 <__do_global_dtors_aux>:
  404200:	80 3d 01 c0 00 00 00 	cmpb   $0x0,0xc001(%rip)        # 410208 <completed.7997>
  404207:	75 17                	jne    404220 <__do_global_dtors_aux+0x20>
  404209:	55                   	push   %rbp
  40420a:	48 89 e5             	mov    %rsp,%rbp
  40420d:	e8 7e ff ff ff       	callq  404190 <deregister_tm_clones>
  404212:	c6 05 ef bf 00 00 01 	movb   $0x1,0xbfef(%rip)        # 410208 <completed.7997>
  404219:	5d                   	pop    %rbp
  40421a:	c3                   	retq   
  40421b:	0f 1f 44 00 00       	nopl   0x0(%rax,%rax,1)
  404220:	c3                   	retq   
  404221:	0f 1f 44 00 00       	nopl   0x0(%rax,%rax,1)
  404226:	66 2e 0f 1f 84 00 00 	nopw   %cs:0x0(%rax,%rax,1)
  40422d:	00 00 00 

0000000000404230 <frame_dummy>:
  404230:	eb 8e                	jmp    4041c0 <register_tm_clones>
  404232:	66 90                	xchg   %ax,%ax
  404234:	66 2e 0f 1f 84 00 00 	nopw   %cs:0x0(%rax,%rax,1)
  40423b:	00 00 00 
  40423e:	66 90                	xchg   %ax,%ax

0000000000404240 <effective_bounds_narrow>:
  404240:	66 0f 6f d0          	movdqa %xmm0,%xmm2
  404244:	66 0f 38 37 c1       	pcmpgtq %xmm1,%xmm0
  404249:	48 b8 10 a3 40 00 00 	movabs $0x40a310,%rax
  404250:	00 00 00 
  404253:	66 0f ef 00          	pxor   (%rax),%xmm0
  404257:	66 0f 38 10 d1       	pblendvb %xmm0,%xmm1,%xmm2
  40425c:	66 0f 6f c2          	movdqa %xmm2,%xmm0
  404260:	c3                   	retq   
  404261:	66 2e 0f 1f 84 00 00 	nopw   %cs:0x0(%rax,%rax,1)
  404268:	00 00 00 
  40426b:	0f 1f 44 00 00       	nopl   0x0(%rax,%rax,1)

0000000000404270 <effective_type_check>:
  404270:	49 89 f9             	mov    %rdi,%r9
  404273:	4c 89 c8             	mov    %r9,%rax
  404276:	48 c1 e8 2b          	shr    $0x2b,%rax
  40427a:	0f 85 91 00 00 00    	jne    404311 <effective_type_check+0xa1>
  404280:	4c 89 c9             	mov    %r9,%rcx
  404283:	48 c1 e9 24          	shr    $0x24,%rcx
  404287:	48 8b 04 cd 00 00 30 	mov    0x300000(,%rcx,8),%rax
  40428e:	00 
  40428f:	48 85 c0             	test   %rax,%rax
  404292:	74 7d                	je     404311 <effective_type_check+0xa1>
  404294:	bf 00 00 20 00       	mov    $0x200000,%edi
  404299:	49 f7 e1             	mul    %r9
  40429c:	48 0f af 14 cf       	imul   (%rdi,%rcx,8),%rdx
  4042a1:	48 8d 42 10          	lea    0x10(%rdx),%rax
  4042a5:	4c 8b 12             	mov    (%rdx),%r10
  4042a8:	66 48 0f 6e c0       	movq   %rax,%xmm0
  4042ad:	66 0f 70 c8 44       	pshufd $0x44,%xmm0,%xmm1
  4042b2:	f3 0f 7e 42 08       	movq   0x8(%rdx),%xmm0
  4042b7:	66 0f 73 f8 08       	pslldq $0x8,%xmm0
  4042bc:	4d 85 d2             	test   %r10,%r10
  4042bf:	74 6d                	je     40432e <effective_type_check+0xbe>
  4042c1:	66 0f d4 c8          	paddq  %xmm0,%xmm1
  4042c5:	4c 89 c9             	mov    %r9,%rcx
  4042c8:	48 29 c1             	sub    %rax,%rcx
  4042cb:	41 8b 42 10          	mov    0x10(%r10),%eax
  4042cf:	48 89 cf             	mov    %rcx,%rdi
  4042d2:	48 29 c7             	sub    %rax,%rdi
  4042d5:	72 27                	jb     4042fe <effective_type_check+0x8e>
  4042d7:	45 8b 42 14          	mov    0x14(%r10),%r8d
  4042db:	41 8b 4a 18          	mov    0x18(%r10),%ecx
  4042df:	66 48 0f 6e c1       	movq   %rcx,%xmm0
  4042e4:	48 89 f8             	mov    %rdi,%rax
  4042e7:	49 f7 62 20          	mulq   0x20(%r10)
  4042eb:	48 0f a4 c2 01       	shld   $0x1,%rax,%rdx
  4042f0:	4c 0f af c2          	imul   %rdx,%r8
  4042f4:	66 0f d4 c8          	paddq  %xmm0,%xmm1
  4042f8:	48 01 f9             	add    %rdi,%rcx
  4042fb:	4c 29 c1             	sub    %r8,%rcx
  4042fe:	48 8b 06             	mov    (%rsi),%rax
  404301:	49 8b 12             	mov    (%r10),%rdx
  404304:	48 31 c2             	xor    %rax,%rdx
  404307:	48 09 ca             	or     %rcx,%rdx
  40430a:	75 2e                	jne    40433a <effective_type_check+0xca>
  40430c:	66 0f 6f c1          	movdqa %xmm1,%xmm0
  404310:	c3                   	retq   
  404311:	66 49 0f 6e c1       	movq   %r9,%xmm0
  404316:	66 0f 70 c8 44       	pshufd $0x44,%xmm0,%xmm1
  40431b:	48 b8 00 a3 40 00 00 	movabs $0x40a300,%rax
  404322:	00 00 00 
  404325:	66 0f d4 08          	paddq  (%rax),%xmm1
  404329:	66 0f 6f c1          	movdqa %xmm1,%xmm0
  40432d:	c3                   	retq   
  40432e:	49 ba 00 fc 40 00 00 	movabs $0x40fc00,%r10
  404335:	00 00 00 
  404338:	eb 87                	jmp    4042c1 <effective_type_check+0x51>
  40433a:	66 49 0f 6e c1       	movq   %r9,%xmm0
  40433f:	66 0f 70 d8 44       	pshufd $0x44,%xmm0,%xmm3
  404344:	48 89 c2             	mov    %rax,%rdx
  404347:	f2 48 0f 38 f1 d1    	crc32q %rcx,%rdx
  40434d:	4d 8b 42 08          	mov    0x8(%r10),%r8
  404351:	4d 8b 5a 28          	mov    0x28(%r10),%r11
  404355:	48 31 c2             	xor    %rax,%rdx
  404358:	4c 31 c2             	xor    %r8,%rdx
  40435b:	48 89 d0             	mov    %rdx,%rax
  40435e:	4c 21 d8             	and    %r11,%rax
  404361:	48 c1 e0 05          	shl    $0x5,%rax
  404365:	49 8b 7c 02 40       	mov    0x40(%r10,%rax,1),%rdi
  40436a:	48 39 d7             	cmp    %rdx,%rdi
  40436d:	75 0a                	jne    404379 <effective_type_check+0x109>
  40436f:	49 8d 7c 02 40       	lea    0x40(%r10,%rax,1),%rdi
  404374:	e9 00 01 00 00       	jmpq   404479 <effective_type_check+0x209>
  404379:	66 0f 6f c3          	movdqa %xmm3,%xmm0
  40437d:	48 83 ff ff          	cmp    $0xffffffffffffffff,%rdi
  404381:	74 17                	je     40439a <effective_type_check+0x12a>
  404383:	49 8d 7c 02 60       	lea    0x60(%r10,%rax,1),%rdi
  404388:	48 8b 07             	mov    (%rdi),%rax
  40438b:	48 39 d0             	cmp    %rdx,%rax
  40438e:	74 5b                	je     4043eb <effective_type_check+0x17b>
  404390:	48 83 c7 20          	add    $0x20,%rdi
  404394:	48 83 f8 ff          	cmp    $0xffffffffffffffff,%rax
  404398:	75 ee                	jne    404388 <effective_type_check+0x118>
  40439a:	48 8b 46 38          	mov    0x38(%rsi),%rax
  40439e:	48 89 c2             	mov    %rax,%rdx
  4043a1:	f2 48 0f 38 f1 d1    	crc32q %rcx,%rdx
  4043a7:	48 31 c2             	xor    %rax,%rdx
  4043aa:	4c 31 c2             	xor    %r8,%rdx
  4043ad:	48 89 d0             	mov    %rdx,%rax
  4043b0:	4c 21 d8             	and    %r11,%rax
  4043b3:	48 c1 e0 05          	shl    $0x5,%rax
  4043b7:	49 8d 7c 02 40       	lea    0x40(%r10,%rax,1),%rdi
  4043bc:	49 8b 44 02 40       	mov    0x40(%r10,%rax,1),%rax
  4043c1:	48 39 d0             	cmp    %rdx,%rax
  4043c4:	75 09                	jne    4043cf <effective_type_check+0x15f>
  4043c6:	66 0f 6f d8          	movdqa %xmm0,%xmm3
  4043ca:	e9 aa 00 00 00       	jmpq   404479 <effective_type_check+0x209>
  4043cf:	66 0f 6f d8          	movdqa %xmm0,%xmm3
  4043d3:	48 83 f8 ff          	cmp    $0xffffffffffffffff,%rax
  4043d7:	74 1b                	je     4043f4 <effective_type_check+0x184>
  4043d9:	48 8b 47 20          	mov    0x20(%rdi),%rax
  4043dd:	48 83 c7 20          	add    $0x20,%rdi
  4043e1:	48 39 d0             	cmp    %rdx,%rax
  4043e4:	75 ed                	jne    4043d3 <effective_type_check+0x163>
  4043e6:	e9 8e 00 00 00       	jmpq   404479 <effective_type_check+0x209>
  4043eb:	66 0f 6f d8          	movdqa %xmm0,%xmm3
  4043ef:	e9 85 00 00 00       	jmpq   404479 <effective_type_check+0x209>
  4043f4:	48 b8 80 fc 40 00 00 	movabs $0x40fc80,%rax
  4043fb:	00 00 00 
  4043fe:	48 8b 00             	mov    (%rax),%rax
  404401:	48 89 c2             	mov    %rax,%rdx
  404404:	f2 48 0f 38 f1 d1    	crc32q %rcx,%rdx
  40440a:	48 31 c2             	xor    %rax,%rdx
  40440d:	4c 31 c2             	xor    %r8,%rdx
  404410:	49 21 d3             	and    %rdx,%r11
  404413:	49 c1 e3 05          	shl    $0x5,%r11
  404417:	4b 8d 7c 1a 40       	lea    0x40(%r10,%r11,1),%rdi
  40441c:	4b 8b 44 1a 40       	mov    0x40(%r10,%r11,1),%rax
  404421:	66 0f 6f d8          	movdqa %xmm0,%xmm3
  404425:	eb 08                	jmp    40442f <effective_type_check+0x1bf>
  404427:	48 8b 47 20          	mov    0x20(%rdi),%rax
  40442b:	48 83 c7 20          	add    $0x20,%rdi
  40442f:	48 39 d0             	cmp    %rdx,%rax
  404432:	74 45                	je     404479 <effective_type_check+0x209>
  404434:	48 83 f8 ff          	cmp    $0xffffffffffffffff,%rax
  404438:	75 ed                	jne    404427 <effective_type_check+0x1b7>
  40443a:	48 83 ec 18          	sub    $0x18,%rsp
  40443e:	4c 8b 44 24 18       	mov    0x18(%rsp),%r8
  404443:	48 b8 a0 49 40 00 00 	movabs $0x4049a0,%rax
  40444a:	00 00 00 
  40444d:	48 89 f7             	mov    %rsi,%rdi
  404450:	4c 89 d6             	mov    %r10,%rsi
  404453:	4c 89 ca             	mov    %r9,%rdx
  404456:	66 0f 7f 1c 24       	movdqa %xmm3,(%rsp)
  40445b:	ff d0                	callq  *%rax
  40445d:	48 b8 00 a3 40 00 00 	movabs $0x40a300,%rax
  404464:	00 00 00 
  404467:	66 0f 6f 0c 24       	movdqa (%rsp),%xmm1
  40446c:	66 0f d4 08          	paddq  (%rax),%xmm1
  404470:	48 83 c4 18          	add    $0x18,%rsp
  404474:	66 0f 6f c1          	movdqa %xmm1,%xmm0
  404478:	c3                   	retq   
  404479:	f3 0f 6f 57 10       	movdqu 0x10(%rdi),%xmm2
  40447e:	66 0f d4 d3          	paddq  %xmm3,%xmm2
  404482:	66 0f 6f c2          	movdqa %xmm2,%xmm0
  404486:	66 0f 38 37 c1       	pcmpgtq %xmm1,%xmm0
  40448b:	48 b8 10 a3 40 00 00 	movabs $0x40a310,%rax
  404492:	00 00 00 
  404495:	66 0f ef 00          	pxor   (%rax),%xmm0
  404499:	66 0f 38 10 d1       	pblendvb %xmm0,%xmm1,%xmm2
  40449e:	66 0f 6f ca          	movdqa %xmm2,%xmm1
  4044a2:	66 0f 6f c1          	movdqa %xmm1,%xmm0
  4044a6:	c3                   	retq   
  4044a7:	66 0f 1f 84 00 00 00 	nopw   0x0(%rax,%rax,1)
  4044ae:	00 00 

00000000004044b0 <effective_get_bounds>:
  4044b0:	49 89 f9             	mov    %rdi,%r9
  4044b3:	4c 89 c8             	mov    %r9,%rax
  4044b6:	48 c1 e8 2b          	shr    $0x2b,%rax
  4044ba:	75 44                	jne    404500 <effective_get_bounds+0x50>
  4044bc:	4c 89 c9             	mov    %r9,%rcx
  4044bf:	48 c1 e9 24          	shr    $0x24,%rcx
  4044c3:	48 8b 04 cd 00 00 30 	mov    0x300000(,%rcx,8),%rax
  4044ca:	00 
  4044cb:	48 85 c0             	test   %rax,%rax
  4044ce:	74 30                	je     404500 <effective_get_bounds+0x50>
  4044d0:	be 00 00 20 00       	mov    $0x200000,%esi
  4044d5:	49 f7 e1             	mul    %r9
  4044d8:	48 0f af 14 ce       	imul   (%rsi,%rcx,8),%rdx
  4044dd:	48 8d 42 10          	lea    0x10(%rdx),%rax
  4044e1:	66 48 0f 6e c0       	movq   %rax,%xmm0
  4044e6:	66 0f 70 c8 44       	pshufd $0x44,%xmm0,%xmm1
  4044eb:	48 83 3a 00          	cmpq   $0x0,(%rdx)
  4044ef:	74 28                	je     404519 <effective_get_bounds+0x69>
  4044f1:	f3 0f 7e 42 08       	movq   0x8(%rdx),%xmm0
  4044f6:	66 0f 73 f8 08       	pslldq $0x8,%xmm0
  4044fb:	66 0f d4 c1          	paddq  %xmm1,%xmm0
  4044ff:	c3                   	retq   
  404500:	66 49 0f 6e c1       	movq   %r9,%xmm0
  404505:	66 0f 70 c0 44       	pshufd $0x44,%xmm0,%xmm0
  40450a:	48 b8 00 a3 40 00 00 	movabs $0x40a300,%rax
  404511:	00 00 00 
  404514:	66 0f d4 00          	paddq  (%rax),%xmm0
  404518:	c3                   	retq   
  404519:	48 83 ec 18          	sub    $0x18,%rsp
  40451d:	49 8d 49 f0          	lea    -0x10(%r9),%rcx
  404521:	48 29 c1             	sub    %rax,%rcx
  404524:	4c 8b 44 24 18       	mov    0x18(%rsp),%r8
  404529:	48 bf 80 fc 40 00 00 	movabs $0x40fc80,%rdi
  404530:	00 00 00 
  404533:	48 be 00 fc 40 00 00 	movabs $0x40fc00,%rsi
  40453a:	00 00 00 
  40453d:	48 b8 a0 49 40 00 00 	movabs $0x4049a0,%rax
  404544:	00 00 00 
  404547:	4c 89 ca             	mov    %r9,%rdx
  40454a:	66 0f 7f 0c 24       	movdqa %xmm1,(%rsp)
  40454f:	ff d0                	callq  *%rax
  404551:	66 0f 6f 0c 24       	movdqa (%rsp),%xmm1
  404556:	48 b8 00 a3 40 00 00 	movabs $0x40a300,%rax
  40455d:	00 00 00 
  404560:	66 0f 6f 00          	movdqa (%rax),%xmm0
  404564:	48 83 c4 18          	add    $0x18,%rsp
  404568:	66 0f d4 c1          	paddq  %xmm1,%xmm0
  40456c:	c3                   	retq   
  40456d:	0f 1f 00             	nopl   (%rax)

0000000000404570 <effective_bounds_check>:
  404570:	66 48 0f 6e cf       	movq   %rdi,%xmm1
  404575:	66 0f 70 c9 44       	pshufd $0x44,%xmm1,%xmm1
  40457a:	48 8d 46 01          	lea    0x1(%rsi),%rax
  40457e:	66 48 0f 6e d2       	movq   %rdx,%xmm2
  404583:	66 48 0f 6e d8       	movq   %rax,%xmm3
  404588:	66 0f 6c da          	punpcklqdq %xmm2,%xmm3
  40458c:	66 0f 6f d0          	movdqa %xmm0,%xmm2
  404590:	66 0f fb d3          	psubq  %xmm3,%xmm2
  404594:	66 0f 38 37 ca       	pcmpgtq %xmm2,%xmm1
  404599:	66 0f d7 c1          	pmovmskb %xmm1,%eax
  40459d:	3d ff 00 00 00       	cmp    $0xff,%eax
  4045a2:	75 01                	jne    4045a5 <effective_bounds_check+0x35>
  4045a4:	c3                   	retq   
  4045a5:	48 29 f2             	sub    %rsi,%rdx
  4045a8:	48 b8 a0 4d 40 00 00 	movabs $0x404da0,%rax
  4045af:	00 00 00 
  4045b2:	48 89 d6             	mov    %rdx,%rsi
  4045b5:	ff e0                	jmpq   *%rax
  4045b7:	90                   	nop
  4045b8:	0f 1f 84 00 00 00 00 	nopl   0x0(%rax,%rax,1)
  4045bf:	00 

00000000004045c0 <effective__Znam>:
  4045c0:	41 57                	push   %r15
  4045c2:	41 56                	push   %r14
  4045c4:	53                   	push   %rbx
  4045c5:	49 89 f7             	mov    %rsi,%r15
  4045c8:	49 89 fe             	mov    %rdi,%r14
  4045cb:	49 8d 7e 10          	lea    0x10(%r14),%rdi
  4045cf:	48 b8 d0 7d 40 00 00 	movabs $0x407dd0,%rax
  4045d6:	00 00 00 
  4045d9:	ff d0                	callq  *%rax
  4045db:	48 89 c3             	mov    %rax,%rbx
  4045de:	48 b8 40 84 40 00 00 	movabs $0x408440,%rax
  4045e5:	00 00 00 
  4045e8:	48 89 df             	mov    %rbx,%rdi
  4045eb:	ff d0                	callq  *%rax
  4045ed:	84 c0                	test   %al,%al
  4045ef:	74 0b                	je     4045fc <effective__Znam+0x3c>
  4045f1:	4c 89 73 08          	mov    %r14,0x8(%rbx)
  4045f5:	4c 89 3b             	mov    %r15,(%rbx)
  4045f8:	48 83 c3 10          	add    $0x10,%rbx
  4045fc:	49 01 de             	add    %rbx,%r14
  4045ff:	66 49 0f 6e ce       	movq   %r14,%xmm1
  404604:	66 48 0f 6e c3       	movq   %rbx,%xmm0
  404609:	66 0f 6c c1          	punpcklqdq %xmm1,%xmm0
  40460d:	5b                   	pop    %rbx
  40460e:	41 5e                	pop    %r14
  404610:	41 5f                	pop    %r15
  404612:	c3                   	retq   
  404613:	66 2e 0f 1f 84 00 00 	nopw   %cs:0x0(%rax,%rax,1)
  40461a:	00 00 00 
  40461d:	0f 1f 00             	nopl   (%rax)

0000000000404620 <effective_calloc>:
  404620:	41 57                	push   %r15
  404622:	41 56                	push   %r14
  404624:	53                   	push   %rbx
  404625:	48 83 ec 10          	sub    $0x10,%rsp
  404629:	49 89 d7             	mov    %rdx,%r15
  40462c:	49 89 fe             	mov    %rdi,%r14
  40462f:	4c 0f af f6          	imul   %rsi,%r14
  404633:	49 8d 7e 10          	lea    0x10(%r14),%rdi
  404637:	48 b8 d0 7d 40 00 00 	movabs $0x407dd0,%rax
  40463e:	00 00 00 
  404641:	ff d0                	callq  *%rax
  404643:	48 89 c3             	mov    %rax,%rbx
  404646:	48 b8 40 84 40 00 00 	movabs $0x408440,%rax
  40464d:	00 00 00 
  404650:	48 89 df             	mov    %rbx,%rdi
  404653:	ff d0                	callq  *%rax
  404655:	84 c0                	test   %al,%al
  404657:	74 0b                	je     404664 <effective_calloc+0x44>
  404659:	4c 89 73 08          	mov    %r14,0x8(%rbx)
  40465d:	4c 89 3b             	mov    %r15,(%rbx)
  404660:	48 83 c3 10          	add    $0x10,%rbx
  404664:	4a 8d 04 33          	lea    (%rbx,%r14,1),%rax
  404668:	66 48 0f 6e c0       	movq   %rax,%xmm0
  40466d:	66 48 0f 6e cb       	movq   %rbx,%xmm1
  404672:	66 0f 6c c8          	punpcklqdq %xmm0,%xmm1
  404676:	66 0f 7f 0c 24       	movdqa %xmm1,(%rsp)
  40467b:	48 b8 70 3e 40 00 00 	movabs $0x403e70,%rax
  404682:	00 00 00 
  404685:	31 f6                	xor    %esi,%esi
  404687:	48 89 df             	mov    %rbx,%rdi
  40468a:	4c 89 f2             	mov    %r14,%rdx
  40468d:	ff d0                	callq  *%rax
  40468f:	0f 28 04 24          	movaps (%rsp),%xmm0
  404693:	48 83 c4 10          	add    $0x10,%rsp
  404697:	5b                   	pop    %rbx
  404698:	41 5e                	pop    %r14
  40469a:	41 5f                	pop    %r15
  40469c:	c3                   	retq   
  40469d:	0f 1f 00             	nopl   (%rax)

00000000004046a0 <effective_realloc>:
  4046a0:	55                   	push   %rbp
  4046a1:	41 57                	push   %r15
  4046a3:	41 56                	push   %r14
  4046a5:	41 55                	push   %r13
  4046a7:	41 54                	push   %r12
  4046a9:	53                   	push   %rbx
  4046aa:	48 83 ec 18          	sub    $0x18,%rsp
  4046ae:	49 89 f4             	mov    %rsi,%r12
  4046b1:	48 89 fb             	mov    %rdi,%rbx
  4046b4:	49 bd 40 84 40 00 00 	movabs $0x408440,%r13
  4046bb:	00 00 00 
  4046be:	41 ff d5             	callq  *%r13
  4046c1:	84 c0                	test   %al,%al
  4046c3:	0f 84 9b 00 00 00    	je     404764 <effective_realloc+0xc4>
  4046c9:	48 89 d9             	mov    %rbx,%rcx
  4046cc:	48 c1 e9 24          	shr    $0x24,%rcx
  4046d0:	48 89 d8             	mov    %rbx,%rax
  4046d3:	48 f7 24 cd 00 00 30 	mulq   0x300000(,%rcx,8)
  4046da:	00 
  4046db:	49 89 d6             	mov    %rdx,%r14
  4046de:	4c 0f af 34 cd 00 00 	imul   0x200000(,%rcx,8),%r14
  4046e5:	20 00 
  4046e7:	49 8b 2e             	mov    (%r14),%rbp
  4046ea:	49 8b 5e 08          	mov    0x8(%r14),%rbx
  4046ee:	49 83 c6 10          	add    $0x10,%r14
  4046f2:	49 8d 7c 24 10       	lea    0x10(%r12),%rdi
  4046f7:	48 b8 d0 7d 40 00 00 	movabs $0x407dd0,%rax
  4046fe:	00 00 00 
  404701:	ff d0                	callq  *%rax
  404703:	49 89 c7             	mov    %rax,%r15
  404706:	4c 89 ff             	mov    %r15,%rdi
  404709:	41 ff d5             	callq  *%r13
  40470c:	84 c0                	test   %al,%al
  40470e:	74 0b                	je     40471b <effective_realloc+0x7b>
  404710:	4d 89 67 08          	mov    %r12,0x8(%r15)
  404714:	49 89 2f             	mov    %rbp,(%r15)
  404717:	49 83 c7 10          	add    $0x10,%r15
  40471b:	4b 8d 04 27          	lea    (%r15,%r12,1),%rax
  40471f:	66 48 0f 6e c0       	movq   %rax,%xmm0
  404724:	66 49 0f 6e cf       	movq   %r15,%xmm1
  404729:	66 0f 6c c8          	punpcklqdq %xmm0,%xmm1
  40472d:	66 0f 7f 0c 24       	movdqa %xmm1,(%rsp)
  404732:	4c 39 e3             	cmp    %r12,%rbx
  404735:	4c 0f 42 e3          	cmovb  %rbx,%r12
  404739:	48 b8 20 3f 40 00 00 	movabs $0x403f20,%rax
  404740:	00 00 00 
  404743:	4c 89 ff             	mov    %r15,%rdi
  404746:	4c 89 f6             	mov    %r14,%rsi
  404749:	4c 89 e2             	mov    %r12,%rdx
  40474c:	ff d0                	callq  *%rax
  40474e:	48 b8 a0 47 40 00 00 	movabs $0x4047a0,%rax
  404755:	00 00 00 
  404758:	4c 89 f7             	mov    %r14,%rdi
  40475b:	ff d0                	callq  *%rax
  40475d:	66 0f 6f 04 24       	movdqa (%rsp),%xmm0
  404762:	eb 23                	jmp    404787 <effective_realloc+0xe7>
  404764:	48 b8 30 3f 40 00 00 	movabs $0x403f30,%rax
  40476b:	00 00 00 
  40476e:	48 89 df             	mov    %rbx,%rdi
  404771:	4c 89 e6             	mov    %r12,%rsi
  404774:	ff d0                	callq  *%rax
  404776:	49 01 c4             	add    %rax,%r12
  404779:	66 48 0f 6e c0       	movq   %rax,%xmm0
  40477e:	66 49 0f 6e cc       	movq   %r12,%xmm1
  404783:	66 0f 6c c1          	punpcklqdq %xmm1,%xmm0
  404787:	48 83 c4 18          	add    $0x18,%rsp
  40478b:	5b                   	pop    %rbx
  40478c:	41 5c                	pop    %r12
  40478e:	41 5d                	pop    %r13
  404790:	41 5e                	pop    %r14
  404792:	41 5f                	pop    %r15
  404794:	5d                   	pop    %rbp
  404795:	c3                   	retq   
  404796:	66 2e 0f 1f 84 00 00 	nopw   %cs:0x0(%rax,%rax,1)
  40479d:	00 00 00 

00000000004047a0 <_ZdaPv>:
  4047a0:	53                   	push   %rbx
  4047a1:	48 89 fb             	mov    %rdi,%rbx
  4047a4:	48 b8 40 84 40 00 00 	movabs $0x408440,%rax
  4047ab:	00 00 00 
  4047ae:	ff d0                	callq  *%rax
  4047b0:	84 c0                	test   %al,%al
  4047b2:	74 4b                	je     4047ff <_ZdaPv+0x5f>
  4047b4:	48 b8 50 84 40 00 00 	movabs $0x408450,%rax
  4047bb:	00 00 00 
  4047be:	48 89 df             	mov    %rbx,%rdi
  4047c1:	ff d0                	callq  *%rax
  4047c3:	84 c0                	test   %al,%al
  4047c5:	74 48                	je     40480f <_ZdaPv+0x6f>
  4047c7:	48 89 d9             	mov    %rbx,%rcx
  4047ca:	48 c1 e9 24          	shr    $0x24,%rcx
  4047ce:	48 89 d8             	mov    %rbx,%rax
  4047d1:	48 f7 24 cd 00 00 30 	mulq   0x300000(,%rcx,8)
  4047d8:	00 
  4047d9:	48 89 d7             	mov    %rdx,%rdi
  4047dc:	48 0f af 3c cd 00 00 	imul   0x200000(,%rcx,8),%rdi
  4047e3:	20 00 
  4047e5:	48 83 3f 00          	cmpq   $0x0,(%rdi)
  4047e9:	74 39                	je     404824 <_ZdaPv+0x84>
  4047eb:	48 c7 07 00 00 00 00 	movq   $0x0,(%rdi)
  4047f2:	48 b8 c0 82 40 00 00 	movabs $0x4082c0,%rax
  4047f9:	00 00 00 
  4047fc:	5b                   	pop    %rbx
  4047fd:	ff e0                	jmpq   *%rax
  4047ff:	48 b8 00 40 40 00 00 	movabs $0x404000,%rax
  404806:	00 00 00 
  404809:	48 89 df             	mov    %rbx,%rdi
  40480c:	5b                   	pop    %rbx
  40480d:	ff e0                	jmpq   *%rax
  40480f:	48 8b 74 24 08       	mov    0x8(%rsp),%rsi
  404814:	48 b8 60 51 40 00 00 	movabs $0x405160,%rax
  40481b:	00 00 00 
  40481e:	48 89 df             	mov    %rbx,%rdi
  404821:	5b                   	pop    %rbx
  404822:	ff e0                	jmpq   *%rax
  404824:	48 8b 74 24 08       	mov    0x8(%rsp),%rsi
  404829:	48 b8 f0 4f 40 00 00 	movabs $0x404ff0,%rax
  404830:	00 00 00 
  404833:	5b                   	pop    %rbx
  404834:	ff e0                	jmpq   *%rax
  404836:	66 2e 0f 1f 84 00 00 	nopw   %cs:0x0(%rax,%rax,1)
  40483d:	00 00 00 

0000000000404840 <realloc>:
  404840:	50                   	push   %rax
  404841:	48 b8 a0 46 40 00 00 	movabs $0x4046a0,%rax
  404848:	00 00 00 
  40484b:	ff d0                	callq  *%rax
  40484d:	66 48 0f 7e c0       	movq   %xmm0,%rax
  404852:	59                   	pop    %rcx
  404853:	c3                   	retq   
  404854:	66 2e 0f 1f 84 00 00 	nopw   %cs:0x0(%rax,%rax,1)
  40485b:	00 00 00 
  40485e:	66 90                	xchg   %ax,%ax

0000000000404860 <effective_get_num_type_errors>:
  404860:	48 b8 58 02 41 00 00 	movabs $0x410258,%rax
  404867:	00 00 00 
  40486a:	8a 00                	mov    (%rax),%al
  40486c:	84 c0                	test   %al,%al
  40486e:	74 0e                	je     40487e <effective_get_num_type_errors+0x1e>
  404870:	48 b8 38 02 41 00 00 	movabs $0x410238,%rax
  404877:	00 00 00 
  40487a:	48 8b 00             	mov    (%rax),%rax
  40487d:	c3                   	retq   
  40487e:	48 b8 60 02 41 00 00 	movabs $0x410260,%rax
  404885:	00 00 00 
  404888:	48 8b 08             	mov    (%rax),%rcx
  40488b:	48 85 c9             	test   %rcx,%rcx
  40488e:	74 69                	je     4048f9 <effective_get_num_type_errors+0x99>
  404890:	48 b8 68 02 41 00 00 	movabs $0x410268,%rax
  404897:	00 00 00 
  40489a:	4c 8b 00             	mov    (%rax),%r8
  40489d:	31 f6                	xor    %esi,%esi
  40489f:	31 c0                	xor    %eax,%eax
  4048a1:	66 66 66 66 66 66 2e 	data16 data16 data16 data16 data16 nopw %cs:0x0(%rax,%rax,1)
  4048a8:	0f 1f 84 00 00 00 00 
  4048af:	00 
  4048b0:	49 8b 3c f0          	mov    (%r8,%rsi,8),%rdi
  4048b4:	48 85 ff             	test   %rdi,%rdi
  4048b7:	75 13                	jne    4048cc <effective_get_num_type_errors+0x6c>
  4048b9:	eb 35                	jmp    4048f0 <effective_get_num_type_errors+0x90>
  4048bb:	0f 1f 44 00 00       	nopl   0x0(%rax,%rax,1)
  4048c0:	48 01 d0             	add    %rdx,%rax
  4048c3:	48 8b 7f 08          	mov    0x8(%rdi),%rdi
  4048c7:	48 85 ff             	test   %rdi,%rdi
  4048ca:	74 24                	je     4048f0 <effective_get_num_type_errors+0x90>
  4048cc:	83 7f 18 00          	cmpl   $0x0,0x18(%rdi)
  4048d0:	74 0e                	je     4048e0 <effective_get_num_type_errors+0x80>
  4048d2:	31 d2                	xor    %edx,%edx
  4048d4:	eb ea                	jmp    4048c0 <effective_get_num_type_errors+0x60>
  4048d6:	66 2e 0f 1f 84 00 00 	nopw   %cs:0x0(%rax,%rax,1)
  4048dd:	00 00 00 
  4048e0:	48 8b 57 10          	mov    0x10(%rdi),%rdx
  4048e4:	eb da                	jmp    4048c0 <effective_get_num_type_errors+0x60>
  4048e6:	66 2e 0f 1f 84 00 00 	nopw   %cs:0x0(%rax,%rax,1)
  4048ed:	00 00 00 
  4048f0:	48 ff c6             	inc    %rsi
  4048f3:	48 39 ce             	cmp    %rcx,%rsi
  4048f6:	72 b8                	jb     4048b0 <effective_get_num_type_errors+0x50>
  4048f8:	c3                   	retq   
  4048f9:	31 c0                	xor    %eax,%eax
  4048fb:	c3                   	retq   
  4048fc:	0f 1f 40 00          	nopl   0x0(%rax)

0000000000404900 <effective_get_num_bounds_errors>:
  404900:	48 b8 58 02 41 00 00 	movabs $0x410258,%rax
  404907:	00 00 00 
  40490a:	8a 00                	mov    (%rax),%al
  40490c:	84 c0                	test   %al,%al
  40490e:	74 0e                	je     40491e <effective_get_num_bounds_errors+0x1e>
  404910:	48 b8 40 02 41 00 00 	movabs $0x410240,%rax
  404917:	00 00 00 
  40491a:	48 8b 00             	mov    (%rax),%rax
  40491d:	c3                   	retq   
  40491e:	48 b8 60 02 41 00 00 	movabs $0x410260,%rax
  404925:	00 00 00 
  404928:	48 8b 08             	mov    (%rax),%rcx
  40492b:	48 85 c9             	test   %rcx,%rcx
  40492e:	74 69                	je     404999 <effective_get_num_bounds_errors+0x99>
  404930:	48 b8 68 02 41 00 00 	movabs $0x410268,%rax
  404937:	00 00 00 
  40493a:	4c 8b 00             	mov    (%rax),%r8
  40493d:	31 f6                	xor    %esi,%esi
  40493f:	31 c0                	xor    %eax,%eax
  404941:	66 66 66 66 66 66 2e 	data16 data16 data16 data16 data16 nopw %cs:0x0(%rax,%rax,1)
  404948:	0f 1f 84 00 00 00 00 
  40494f:	00 
  404950:	49 8b 3c f0          	mov    (%r8,%rsi,8),%rdi
  404954:	48 85 ff             	test   %rdi,%rdi
  404957:	75 13                	jne    40496c <effective_get_num_bounds_errors+0x6c>
  404959:	eb 35                	jmp    404990 <effective_get_num_bounds_errors+0x90>
  40495b:	0f 1f 44 00 00       	nopl   0x0(%rax,%rax,1)
  404960:	48 01 d0             	add    %rdx,%rax
  404963:	48 8b 7f 08          	mov    0x8(%rdi),%rdi
  404967:	48 85 ff             	test   %rdi,%rdi
  40496a:	74 24                	je     404990 <effective_get_num_bounds_errors+0x90>
  40496c:	83 7f 18 01          	cmpl   $0x1,0x18(%rdi)
  404970:	75 0e                	jne    404980 <effective_get_num_bounds_errors+0x80>
  404972:	48 8b 57 10          	mov    0x10(%rdi),%rdx
  404976:	eb e8                	jmp    404960 <effective_get_num_bounds_errors+0x60>
  404978:	0f 1f 84 00 00 00 00 	nopl   0x0(%rax,%rax,1)
  40497f:	00 
  404980:	31 d2                	xor    %edx,%edx
  404982:	eb dc                	jmp    404960 <effective_get_num_bounds_errors+0x60>
  404984:	66 66 66 2e 0f 1f 84 	data16 data16 nopw %cs:0x0(%rax,%rax,1)
  40498b:	00 00 00 00 00 
  404990:	48 ff c6             	inc    %rsi
  404993:	48 39 ce             	cmp    %rcx,%rsi
  404996:	72 b8                	jb     404950 <effective_get_num_bounds_errors+0x50>
  404998:	c3                   	retq   
  404999:	31 c0                	xor    %eax,%eax
  40499b:	c3                   	retq   
  40499c:	0f 1f 40 00          	nopl   0x0(%rax)

00000000004049a0 <effective_type_error>:
  4049a0:	55                   	push   %rbp
  4049a1:	41 57                	push   %r15
  4049a3:	41 56                	push   %r14
  4049a5:	41 55                	push   %r13
  4049a7:	41 54                	push   %r12
  4049a9:	53                   	push   %rbx
  4049aa:	48 81 ec 08 01 00 00 	sub    $0x108,%rsp
  4049b1:	4c 89 c5             	mov    %r8,%rbp
  4049b4:	49 89 ce             	mov    %rcx,%r14
  4049b7:	49 89 d7             	mov    %rdx,%r15
  4049ba:	49 89 f4             	mov    %rsi,%r12
  4049bd:	49 89 fd             	mov    %rdi,%r13
  4049c0:	48 b8 58 02 41 00 00 	movabs $0x410258,%rax
  4049c7:	00 00 00 
  4049ca:	80 38 01             	cmpb   $0x1,(%rax)
  4049cd:	75 22                	jne    4049f1 <effective_type_error+0x51>
  4049cf:	48 b8 79 02 41 00 00 	movabs $0x410279,%rax
  4049d6:	00 00 00 
  4049d9:	8a 00                	mov    (%rax),%al
  4049db:	84 c0                	test   %al,%al
  4049dd:	74 64                	je     404a43 <effective_type_error+0xa3>
  4049df:	48 b8 38 02 41 00 00 	movabs $0x410238,%rax
  4049e6:	00 00 00 
  4049e9:	48 ff 00             	incq   (%rax)
  4049ec:	e9 38 01 00 00       	jmpq   404b29 <effective_type_error+0x189>
  4049f1:	48 b8 c8 01 41 00 00 	movabs $0x4101c8,%rax
  4049f8:	00 00 00 
  4049fb:	49 8b 7c 24 08       	mov    0x8(%r12),%rdi
  404a00:	49 8b 75 00          	mov    0x0(%r13),%rsi
  404a04:	4c 89 f2             	mov    %r14,%rdx
  404a07:	ff 10                	callq  *(%rax)
  404a09:	48 b9 50 4b 40 00 00 	movabs $0x404b50,%rcx
  404a10:	00 00 00 
  404a13:	48 89 c7             	mov    %rax,%rdi
  404a16:	ff d1                	callq  *%rcx
  404a18:	48 89 c3             	mov    %rax,%rbx
  404a1b:	48 85 db             	test   %rbx,%rbx
  404a1e:	0f 84 05 01 00 00    	je     404b29 <effective_type_error+0x189>
  404a24:	c7 43 18 00 00 00 00 	movl   $0x0,0x18(%rbx)
  404a2b:	48 89 6b 28          	mov    %rbp,0x28(%rbx)
  404a2f:	48 b8 78 02 41 00 00 	movabs $0x410278,%rax
  404a36:	00 00 00 
  404a39:	8a 00                	mov    (%rax),%al
  404a3b:	84 c0                	test   %al,%al
  404a3d:	74 17                	je     404a56 <effective_type_error+0xb6>
  404a3f:	31 c0                	xor    %eax,%eax
  404a41:	eb 3d                	jmp    404a80 <effective_type_error+0xe0>
  404a43:	48 b8 38 02 41 00 00 	movabs $0x410238,%rax
  404a4a:	00 00 00 
  404a4d:	f0 48 ff 00          	lock incq (%rax)
  404a51:	e9 d3 00 00 00       	jmpq   404b29 <effective_type_error+0x189>
  404a56:	48 b8 60 40 40 00 00 	movabs $0x404060,%rax
  404a5d:	00 00 00 
  404a60:	48 89 e7             	mov    %rsp,%rdi
  404a63:	be 20 00 00 00       	mov    $0x20,%esi
  404a68:	ff d0                	callq  *%rax
  404a6a:	89 c5                	mov    %eax,%ebp
  404a6c:	48 b8 70 40 40 00 00 	movabs $0x404070,%rax
  404a73:	00 00 00 
  404a76:	48 89 e7             	mov    %rsp,%rdi
  404a79:	89 ee                	mov    %ebp,%esi
  404a7b:	ff d0                	callq  *%rax
  404a7d:	89 6b 1c             	mov    %ebp,0x1c(%rbx)
  404a80:	48 89 43 20          	mov    %rax,0x20(%rbx)
  404a84:	48 b8 d0 40 40 00 00 	movabs $0x4040d0,%rax
  404a8b:	00 00 00 
  404a8e:	bf 20 00 00 00       	mov    $0x20,%edi
  404a93:	ff d0                	callq  *%rax
  404a95:	48 89 43 30          	mov    %rax,0x30(%rbx)
  404a99:	48 85 c0             	test   %rax,%rax
  404a9c:	74 0f                	je     404aad <effective_type_error+0x10d>
  404a9e:	4c 89 38             	mov    %r15,(%rax)
  404aa1:	4c 89 68 08          	mov    %r13,0x8(%rax)
  404aa5:	4c 89 60 10          	mov    %r12,0x10(%rax)
  404aa9:	4c 89 70 18          	mov    %r14,0x18(%rax)
  404aad:	48 bb d8 01 41 00 00 	movabs $0x4101d8,%rbx
  404ab4:	00 00 00 
  404ab7:	48 8b 03             	mov    (%rbx),%rax
  404aba:	48 83 f8 ff          	cmp    $0xffffffffffffffff,%rax
  404abe:	74 69                	je     404b29 <effective_type_error+0x189>
  404ac0:	48 bd 79 02 41 00 00 	movabs $0x410279,%rbp
  404ac7:	00 00 00 
  404aca:	80 7d 00 01          	cmpb   $0x1,0x0(%rbp)
  404ace:	75 11                	jne    404ae1 <effective_type_error+0x141>
  404ad0:	48 b9 a8 02 41 00 00 	movabs $0x4102a8,%rcx
  404ad7:	00 00 00 
  404ada:	48 39 01             	cmp    %rax,(%rcx)
  404add:	72 4a                	jb     404b29 <effective_type_error+0x189>
  404adf:	eb 5a                	jmp    404b3b <effective_type_error+0x19b>
  404ae1:	48 bf 80 02 41 00 00 	movabs $0x410280,%rdi
  404ae8:	00 00 00 
  404aeb:	48 b8 50 40 40 00 00 	movabs $0x404050,%rax
  404af2:	00 00 00 
  404af5:	ff d0                	callq  *%rax
  404af7:	8a 45 00             	mov    0x0(%rbp),%al
  404afa:	48 b9 a8 02 41 00 00 	movabs $0x4102a8,%rcx
  404b01:	00 00 00 
  404b04:	48 8b 29             	mov    (%rcx),%rbp
  404b07:	48 8b 1b             	mov    (%rbx),%rbx
  404b0a:	84 c0                	test   %al,%al
  404b0c:	75 16                	jne    404b24 <effective_type_error+0x184>
  404b0e:	48 bf 80 02 41 00 00 	movabs $0x410280,%rdi
  404b15:	00 00 00 
  404b18:	48 b8 10 3f 40 00 00 	movabs $0x403f10,%rax
  404b1f:	00 00 00 
  404b22:	ff d0                	callq  *%rax
  404b24:	48 39 dd             	cmp    %rbx,%rbp
  404b27:	73 12                	jae    404b3b <effective_type_error+0x19b>
  404b29:	48 81 c4 08 01 00 00 	add    $0x108,%rsp
  404b30:	5b                   	pop    %rbx
  404b31:	41 5c                	pop    %r12
  404b33:	41 5d                	pop    %r13
  404b35:	41 5e                	pop    %r14
  404b37:	41 5f                	pop    %r15
  404b39:	5d                   	pop    %rbp
  404b3a:	c3                   	retq   
  404b3b:	48 b8 a0 3f 40 00 00 	movabs $0x403fa0,%rax
  404b42:	00 00 00 
  404b45:	bf 01 00 00 00       	mov    $0x1,%edi
  404b4a:	ff d0                	callq  *%rax
  404b4c:	0f 1f 40 00          	nopl   0x0(%rax)

0000000000404b50 <effective_insert_error>:
  404b50:	41 57                	push   %r15
  404b52:	41 56                	push   %r14
  404b54:	41 55                	push   %r13
  404b56:	41 54                	push   %r12
  404b58:	53                   	push   %rbx
  404b59:	49 89 fe             	mov    %rdi,%r14
  404b5c:	49 bf 79 02 41 00 00 	movabs $0x410279,%r15
  404b63:	00 00 00 
  404b66:	41 8a 07             	mov    (%r15),%al
  404b69:	84 c0                	test   %al,%al
  404b6b:	75 16                	jne    404b83 <effective_insert_error+0x33>
  404b6d:	48 bf 80 02 41 00 00 	movabs $0x410280,%rdi
  404b74:	00 00 00 
  404b77:	48 b8 50 40 40 00 00 	movabs $0x404050,%rax
  404b7e:	00 00 00 
  404b81:	ff d0                	callq  *%rax
  404b83:	49 bc 68 02 41 00 00 	movabs $0x410268,%r12
  404b8a:	00 00 00 
  404b8d:	49 8b 04 24          	mov    (%r12),%rax
  404b91:	48 85 c0             	test   %rax,%rax
  404b94:	74 0f                	je     404ba5 <effective_insert_error+0x55>
  404b96:	48 b9 60 02 41 00 00 	movabs $0x410260,%rcx
  404b9d:	00 00 00 
  404ba0:	4c 8b 09             	mov    (%rcx),%r9
  404ba3:	eb 57                	jmp    404bfc <effective_insert_error+0xac>
  404ba5:	48 b8 f0 40 40 00 00 	movabs $0x4040f0,%rax
  404bac:	00 00 00 
  404baf:	bf 00 00 00 00       	mov    $0x0,%edi
  404bb4:	be 00 00 00 10       	mov    $0x10000000,%esi
  404bb9:	ba 03 00 00 00       	mov    $0x3,%edx
  404bbe:	b9 22 40 00 00       	mov    $0x4022,%ecx
  404bc3:	41 b8 ff ff ff ff    	mov    $0xffffffff,%r8d
  404bc9:	45 31 c9             	xor    %r9d,%r9d
  404bcc:	ff d0                	callq  *%rax
  404bce:	49 89 04 24          	mov    %rax,(%r12)
  404bd2:	48 83 f8 ff          	cmp    $0xffffffffffffffff,%rax
  404bd6:	0f 84 63 01 00 00    	je     404d3f <effective_insert_error+0x1ef>
  404bdc:	48 b9 60 02 41 00 00 	movabs $0x410260,%rcx
  404be3:	00 00 00 
  404be6:	48 c7 01 00 01 00 00 	movq   $0x100,(%rcx)
  404bed:	48 85 c0             	test   %rax,%rax
  404bf0:	0f 84 49 01 00 00    	je     404d3f <effective_insert_error+0x1ef>
  404bf6:	41 b9 00 01 00 00    	mov    $0x100,%r9d
  404bfc:	49 8d 59 ff          	lea    -0x1(%r9),%rbx
  404c00:	4c 21 f3             	and    %r14,%rbx
  404c03:	48 8b 14 d8          	mov    (%rax,%rbx,8),%rdx
  404c07:	48 85 d2             	test   %rdx,%rdx
  404c0a:	74 16                	je     404c22 <effective_insert_error+0xd2>
  404c0c:	0f 1f 40 00          	nopl   0x0(%rax)
  404c10:	4c 39 32             	cmp    %r14,(%rdx)
  404c13:	0f 84 f5 00 00 00    	je     404d0e <effective_insert_error+0x1be>
  404c19:	48 8b 52 08          	mov    0x8(%rdx),%rdx
  404c1d:	48 85 d2             	test   %rdx,%rdx
  404c20:	75 ee                	jne    404c10 <effective_insert_error+0xc0>
  404c22:	48 ba a8 02 41 00 00 	movabs $0x4102a8,%rdx
  404c29:	00 00 00 
  404c2c:	48 8b 32             	mov    (%rdx),%rsi
  404c2f:	48 ff c6             	inc    %rsi
  404c32:	48 89 32             	mov    %rsi,(%rdx)
  404c35:	49 81 f9 ff ff ff 01 	cmp    $0x1ffffff,%r9
  404c3c:	77 78                	ja     404cb6 <effective_insert_error+0x166>
  404c3e:	4f 8d 04 09          	lea    (%r9,%r9,1),%r8
  404c42:	4c 39 c6             	cmp    %r8,%rsi
  404c45:	76 6f                	jbe    404cb6 <effective_insert_error+0x166>
  404c47:	49 8d 58 ff          	lea    -0x1(%r8),%rbx
  404c4b:	4d 85 c9             	test   %r9,%r9
  404c4e:	74 56                	je     404ca6 <effective_insert_error+0x156>
  404c50:	45 31 d2             	xor    %r10d,%r10d
  404c53:	66 66 66 66 2e 0f 1f 	data16 data16 data16 nopw %cs:0x0(%rax,%rax,1)
  404c5a:	84 00 00 00 00 00 
  404c60:	4a 8b 3c d0          	mov    (%rax,%r10,8),%rdi
  404c64:	4a c7 04 d0 00 00 00 	movq   $0x0,(%rax,%r10,8)
  404c6b:	00 
  404c6c:	48 85 ff             	test   %rdi,%rdi
  404c6f:	74 2d                	je     404c9e <effective_insert_error+0x14e>
  404c71:	66 66 66 66 66 66 2e 	data16 data16 data16 data16 data16 nopw %cs:0x0(%rax,%rax,1)
  404c78:	0f 1f 84 00 00 00 00 
  404c7f:	00 
  404c80:	48 8b 57 08          	mov    0x8(%rdi),%rdx
  404c84:	48 8b 0f             	mov    (%rdi),%rcx
  404c87:	48 21 d9             	and    %rbx,%rcx
  404c8a:	48 8b 34 c8          	mov    (%rax,%rcx,8),%rsi
  404c8e:	48 89 77 08          	mov    %rsi,0x8(%rdi)
  404c92:	48 89 3c c8          	mov    %rdi,(%rax,%rcx,8)
  404c96:	48 85 d2             	test   %rdx,%rdx
  404c99:	48 89 d7             	mov    %rdx,%rdi
  404c9c:	75 e2                	jne    404c80 <effective_insert_error+0x130>
  404c9e:	49 ff c2             	inc    %r10
  404ca1:	4d 39 ca             	cmp    %r9,%r10
  404ca4:	72 ba                	jb     404c60 <effective_insert_error+0x110>
  404ca6:	48 b8 60 02 41 00 00 	movabs $0x410260,%rax
  404cad:	00 00 00 
  404cb0:	4c 89 00             	mov    %r8,(%rax)
  404cb3:	4c 21 f3             	and    %r14,%rbx
  404cb6:	48 b8 d0 40 40 00 00 	movabs $0x4040d0,%rax
  404cbd:	00 00 00 
  404cc0:	bf 38 00 00 00       	mov    $0x38,%edi
  404cc5:	ff d0                	callq  *%rax
  404cc7:	49 89 c5             	mov    %rax,%r13
  404cca:	4d 85 ed             	test   %r13,%r13
  404ccd:	0f 84 95 00 00 00    	je     404d68 <effective_insert_error+0x218>
  404cd3:	4d 89 75 00          	mov    %r14,0x0(%r13)
  404cd7:	49 8b 04 24          	mov    (%r12),%rax
  404cdb:	48 8b 0c d8          	mov    (%rax,%rbx,8),%rcx
  404cdf:	49 89 4d 08          	mov    %rcx,0x8(%r13)
  404ce3:	4c 89 2c d8          	mov    %r13,(%rax,%rbx,8)
  404ce7:	49 c7 45 10 01 00 00 	movq   $0x1,0x10(%r13)
  404cee:	00 
  404cef:	41 8a 07             	mov    (%r15),%al
  404cf2:	84 c0                	test   %al,%al
  404cf4:	75 3c                	jne    404d32 <effective_insert_error+0x1e2>
  404cf6:	48 bf 80 02 41 00 00 	movabs $0x410280,%rdi
  404cfd:	00 00 00 
  404d00:	48 b8 10 3f 40 00 00 	movabs $0x403f10,%rax
  404d07:	00 00 00 
  404d0a:	ff d0                	callq  *%rax
  404d0c:	eb 24                	jmp    404d32 <effective_insert_error+0x1e2>
  404d0e:	48 ff 42 10          	incq   0x10(%rdx)
  404d12:	41 8a 07             	mov    (%r15),%al
  404d15:	84 c0                	test   %al,%al
  404d17:	75 16                	jne    404d2f <effective_insert_error+0x1df>
  404d19:	48 bf 80 02 41 00 00 	movabs $0x410280,%rdi
  404d20:	00 00 00 
  404d23:	48 b8 10 3f 40 00 00 	movabs $0x403f10,%rax
  404d2a:	00 00 00 
  404d2d:	ff d0                	callq  *%rax
  404d2f:	45 31 ed             	xor    %r13d,%r13d
  404d32:	4c 89 e8             	mov    %r13,%rax
  404d35:	5b                   	pop    %rbx
  404d36:	41 5c                	pop    %r12
  404d38:	41 5d                	pop    %r13
  404d3a:	41 5e                	pop    %r14
  404d3c:	41 5f                	pop    %r15
  404d3e:	c3                   	retq   
  404d3f:	48 b8 10 3e 40 00 00 	movabs $0x403e10,%rax
  404d46:	00 00 00 
  404d49:	ff d0                	callq  *%rax
  404d4b:	8b 38                	mov    (%rax),%edi
  404d4d:	48 b8 20 3e 40 00 00 	movabs $0x403e20,%rax
  404d54:	00 00 00 
  404d57:	ff d0                	callq  *%rax
  404d59:	48 89 c1             	mov    %rax,%rcx
  404d5c:	48 bf 05 a5 40 00 00 	movabs $0x40a505,%rdi
  404d63:	00 00 00 
  404d66:	eb 27                	jmp    404d8f <effective_insert_error+0x23f>
  404d68:	48 b8 10 3e 40 00 00 	movabs $0x403e10,%rax
  404d6f:	00 00 00 
  404d72:	ff d0                	callq  *%rax
  404d74:	8b 38                	mov    (%rax),%edi
  404d76:	48 b8 20 3e 40 00 00 	movabs $0x403e20,%rax
  404d7d:	00 00 00 
  404d80:	ff d0                	callq  *%rax
  404d82:	48 89 c1             	mov    %rax,%rcx
  404d85:	48 bf 33 a5 40 00 00 	movabs $0x40a533,%rdi
  404d8c:	00 00 00 
  404d8f:	48 ba 60 66 40 00 00 	movabs $0x406660,%rdx
  404d96:	00 00 00 
  404d99:	31 c0                	xor    %eax,%eax
  404d9b:	48 89 ce             	mov    %rcx,%rsi
  404d9e:	ff d2                	callq  *%rdx

0000000000404da0 <effective_bounds_error>:
  404da0:	55                   	push   %rbp
  404da1:	41 57                	push   %r15
  404da3:	41 56                	push   %r14
  404da5:	41 55                	push   %r13
  404da7:	41 54                	push   %r12
  404da9:	53                   	push   %rbx
  404daa:	48 81 ec 28 01 00 00 	sub    $0x128,%rsp
  404db1:	49 89 f6             	mov    %rsi,%r14
  404db4:	49 89 ff             	mov    %rdi,%r15
  404db7:	48 b8 58 02 41 00 00 	movabs $0x410258,%rax
  404dbe:	00 00 00 
  404dc1:	80 38 01             	cmpb   $0x1,(%rax)
  404dc4:	75 26                	jne    404dec <effective_bounds_error+0x4c>
  404dc6:	48 b8 79 02 41 00 00 	movabs $0x410279,%rax
  404dcd:	00 00 00 
  404dd0:	8a 00                	mov    (%rax),%al
  404dd2:	84 c0                	test   %al,%al
  404dd4:	0f 84 c9 00 00 00    	je     404ea3 <effective_bounds_error+0x103>
  404dda:	48 b8 40 02 41 00 00 	movabs $0x410240,%rax
  404de1:	00 00 00 
  404de4:	48 ff 00             	incq   (%rax)
  404de7:	e9 c5 00 00 00       	jmpq   404eb1 <effective_bounds_error+0x111>
  404dec:	66 48 0f 7e c3       	movq   %xmm0,%rbx
  404df1:	48 89 d9             	mov    %rbx,%rcx
  404df4:	48 c1 e9 24          	shr    $0x24,%rcx
  404df8:	48 81 f9 00 04 00 00 	cmp    $0x400,%rcx
  404dff:	0f 87 ac 00 00 00    	ja     404eb1 <effective_bounds_error+0x111>
  404e05:	48 8b 04 cd 00 00 30 	mov    0x300000(,%rcx,8),%rax
  404e0c:	00 
  404e0d:	48 85 c0             	test   %rax,%rax
  404e10:	0f 84 9b 00 00 00    	je     404eb1 <effective_bounds_error+0x111>
  404e16:	be 00 00 20 00       	mov    $0x200000,%esi
  404e1b:	48 f7 e3             	mul    %rbx
  404e1e:	49 89 d4             	mov    %rdx,%r12
  404e21:	4c 0f af 24 ce       	imul   (%rsi,%rcx,8),%r12
  404e26:	4d 85 e4             	test   %r12,%r12
  404e29:	0f 84 82 00 00 00    	je     404eb1 <effective_bounds_error+0x111>
  404e2f:	49 8b 0c 24          	mov    (%r12),%rcx
  404e33:	49 8d 44 24 10       	lea    0x10(%r12),%rax
  404e38:	48 29 c3             	sub    %rax,%rbx
  404e3b:	66 49 0f 3a 16 c5 01 	pextrq $0x1,%xmm0,%r13
  404e42:	48 89 44 24 18       	mov    %rax,0x18(%rsp)
  404e47:	49 29 c5             	sub    %rax,%r13
  404e4a:	48 b8 d0 01 41 00 00 	movabs $0x4101d0,%rax
  404e51:	00 00 00 
  404e54:	48 89 4c 24 10       	mov    %rcx,0x10(%rsp)
  404e59:	48 8b 79 08          	mov    0x8(%rcx),%rdi
  404e5d:	48 89 de             	mov    %rbx,%rsi
  404e60:	4c 89 ea             	mov    %r13,%rdx
  404e63:	ff 10                	callq  *(%rax)
  404e65:	48 b9 50 4b 40 00 00 	movabs $0x404b50,%rcx
  404e6c:	00 00 00 
  404e6f:	48 89 c7             	mov    %rax,%rdi
  404e72:	ff d1                	callq  *%rcx
  404e74:	48 89 c5             	mov    %rax,%rbp
  404e77:	48 85 ed             	test   %rbp,%rbp
  404e7a:	74 35                	je     404eb1 <effective_bounds_error+0x111>
  404e7c:	c7 45 18 01 00 00 00 	movl   $0x1,0x18(%rbp)
  404e83:	48 8b 84 24 58 01 00 	mov    0x158(%rsp),%rax
  404e8a:	00 
  404e8b:	48 89 45 28          	mov    %rax,0x28(%rbp)
  404e8f:	48 b8 78 02 41 00 00 	movabs $0x410278,%rax
  404e96:	00 00 00 
  404e99:	8a 00                	mov    (%rax),%al
  404e9b:	84 c0                	test   %al,%al
  404e9d:	74 24                	je     404ec3 <effective_bounds_error+0x123>
  404e9f:	31 c0                	xor    %eax,%eax
  404ea1:	eb 54                	jmp    404ef7 <effective_bounds_error+0x157>
  404ea3:	48 b8 40 02 41 00 00 	movabs $0x410240,%rax
  404eaa:	00 00 00 
  404ead:	f0 48 ff 00          	lock incq (%rax)
  404eb1:	48 81 c4 28 01 00 00 	add    $0x128,%rsp
  404eb8:	5b                   	pop    %rbx
  404eb9:	41 5c                	pop    %r12
  404ebb:	41 5d                	pop    %r13
  404ebd:	41 5e                	pop    %r14
  404ebf:	41 5f                	pop    %r15
  404ec1:	5d                   	pop    %rbp
  404ec2:	c3                   	retq   
  404ec3:	48 b8 60 40 40 00 00 	movabs $0x404060,%rax
  404eca:	00 00 00 
  404ecd:	48 8d 7c 24 20       	lea    0x20(%rsp),%rdi
  404ed2:	be 20 00 00 00       	mov    $0x20,%esi
  404ed7:	ff d0                	callq  *%rax
  404ed9:	89 44 24 0c          	mov    %eax,0xc(%rsp)
  404edd:	48 b9 70 40 40 00 00 	movabs $0x404070,%rcx
  404ee4:	00 00 00 
  404ee7:	48 8d 7c 24 20       	lea    0x20(%rsp),%rdi
  404eec:	89 c6                	mov    %eax,%esi
  404eee:	ff d1                	callq  *%rcx
  404ef0:	8b 4c 24 0c          	mov    0xc(%rsp),%ecx
  404ef4:	89 4d 1c             	mov    %ecx,0x1c(%rbp)
  404ef7:	48 89 45 20          	mov    %rax,0x20(%rbp)
  404efb:	48 b8 d0 40 40 00 00 	movabs $0x4040d0,%rax
  404f02:	00 00 00 
  404f05:	bf 38 00 00 00       	mov    $0x38,%edi
  404f0a:	ff d0                	callq  *%rax
  404f0c:	48 89 45 30          	mov    %rax,0x30(%rbp)
  404f10:	48 85 c0             	test   %rax,%rax
  404f13:	74 3b                	je     404f50 <effective_bounds_error+0x1b0>
  404f15:	4c 89 f9             	mov    %r15,%rcx
  404f18:	48 8b 54 24 18       	mov    0x18(%rsp),%rdx
  404f1d:	48 29 d1             	sub    %rdx,%rcx
  404f20:	4c 89 38             	mov    %r15,(%rax)
  404f23:	48 8b 74 24 10       	mov    0x10(%rsp),%rsi
  404f28:	48 89 70 08          	mov    %rsi,0x8(%rax)
  404f2c:	48 89 58 10          	mov    %rbx,0x10(%rax)
  404f30:	4c 89 68 18          	mov    %r13,0x18(%rax)
  404f34:	48 89 48 20          	mov    %rcx,0x20(%rax)
  404f38:	4c 89 70 28          	mov    %r14,0x28(%rax)
  404f3c:	73 04                	jae    404f42 <effective_bounds_error+0x1a2>
  404f3e:	31 c9                	xor    %ecx,%ecx
  404f40:	eb 0b                	jmp    404f4d <effective_bounds_error+0x1ad>
  404f42:	49 03 54 24 08       	add    0x8(%r12),%rdx
  404f47:	49 39 d7             	cmp    %rdx,%r15
  404f4a:	0f 92 c1             	setb   %cl
  404f4d:	88 48 30             	mov    %cl,0x30(%rax)
  404f50:	48 bb d8 01 41 00 00 	movabs $0x4101d8,%rbx
  404f57:	00 00 00 
  404f5a:	48 8b 03             	mov    (%rbx),%rax
  404f5d:	48 83 f8 ff          	cmp    $0xffffffffffffffff,%rax
  404f61:	0f 84 4a ff ff ff    	je     404eb1 <effective_bounds_error+0x111>
  404f67:	48 bd 79 02 41 00 00 	movabs $0x410279,%rbp
  404f6e:	00 00 00 
  404f71:	80 7d 00 01          	cmpb   $0x1,0x0(%rbp)
  404f75:	75 15                	jne    404f8c <effective_bounds_error+0x1ec>
  404f77:	48 b9 a8 02 41 00 00 	movabs $0x4102a8,%rcx
  404f7e:	00 00 00 
  404f81:	48 39 01             	cmp    %rax,(%rcx)
  404f84:	0f 82 27 ff ff ff    	jb     404eb1 <effective_bounds_error+0x111>
  404f8a:	eb 4c                	jmp    404fd8 <effective_bounds_error+0x238>
  404f8c:	48 bf 80 02 41 00 00 	movabs $0x410280,%rdi
  404f93:	00 00 00 
  404f96:	48 b8 50 40 40 00 00 	movabs $0x404050,%rax
  404f9d:	00 00 00 
  404fa0:	ff d0                	callq  *%rax
  404fa2:	8a 45 00             	mov    0x0(%rbp),%al
  404fa5:	48 b9 a8 02 41 00 00 	movabs $0x4102a8,%rcx
  404fac:	00 00 00 
  404faf:	48 8b 29             	mov    (%rcx),%rbp
  404fb2:	48 8b 1b             	mov    (%rbx),%rbx
  404fb5:	84 c0                	test   %al,%al
  404fb7:	75 16                	jne    404fcf <effective_bounds_error+0x22f>
  404fb9:	48 bf 80 02 41 00 00 	movabs $0x410280,%rdi
  404fc0:	00 00 00 
  404fc3:	48 b8 10 3f 40 00 00 	movabs $0x403f10,%rax
  404fca:	00 00 00 
  404fcd:	ff d0                	callq  *%rax
  404fcf:	48 39 dd             	cmp    %rbx,%rbp
  404fd2:	0f 82 d9 fe ff ff    	jb     404eb1 <effective_bounds_error+0x111>
  404fd8:	48 b8 a0 3f 40 00 00 	movabs $0x403fa0,%rax
  404fdf:	00 00 00 
  404fe2:	bf 01 00 00 00       	mov    $0x1,%edi
  404fe7:	ff d0                	callq  *%rax
  404fe9:	0f 1f 80 00 00 00 00 	nopl   0x0(%rax)

0000000000404ff0 <effective_double_free_error>:
  404ff0:	55                   	push   %rbp
  404ff1:	41 56                	push   %r14
  404ff3:	53                   	push   %rbx
  404ff4:	48 81 ec 10 01 00 00 	sub    $0x110,%rsp
  404ffb:	49 89 f6             	mov    %rsi,%r14
  404ffe:	48 b8 58 02 41 00 00 	movabs $0x410258,%rax
  405005:	00 00 00 
  405008:	80 38 01             	cmpb   $0x1,(%rax)
  40500b:	75 22                	jne    40502f <effective_double_free_error+0x3f>
  40500d:	48 b8 79 02 41 00 00 	movabs $0x410279,%rax
  405014:	00 00 00 
  405017:	8a 00                	mov    (%rax),%al
  405019:	84 c0                	test   %al,%al
  40501b:	74 53                	je     405070 <effective_double_free_error+0x80>
  40501d:	48 b8 48 02 41 00 00 	movabs $0x410248,%rax
  405024:	00 00 00 
  405027:	48 ff 00             	incq   (%rax)
  40502a:	e9 09 01 00 00       	jmpq   405138 <effective_double_free_error+0x148>
  40502f:	48 b8 50 4b 40 00 00 	movabs $0x404b50,%rax
  405036:	00 00 00 
  405039:	48 bf 5e fd 62 4b 43 	movabs $0x947ee7434b62fd5e,%rdi
  405040:	e7 7e 94 
  405043:	ff d0                	callq  *%rax
  405045:	48 89 c3             	mov    %rax,%rbx
  405048:	48 85 db             	test   %rbx,%rbx
  40504b:	0f 84 e7 00 00 00    	je     405138 <effective_double_free_error+0x148>
  405051:	c7 43 18 02 00 00 00 	movl   $0x2,0x18(%rbx)
  405058:	4c 89 73 28          	mov    %r14,0x28(%rbx)
  40505c:	48 b8 78 02 41 00 00 	movabs $0x410278,%rax
  405063:	00 00 00 
  405066:	8a 00                	mov    (%rax),%al
  405068:	84 c0                	test   %al,%al
  40506a:	74 17                	je     405083 <effective_double_free_error+0x93>
  40506c:	31 c0                	xor    %eax,%eax
  40506e:	eb 40                	jmp    4050b0 <effective_double_free_error+0xc0>
  405070:	48 b8 48 02 41 00 00 	movabs $0x410248,%rax
  405077:	00 00 00 
  40507a:	f0 48 ff 00          	lock incq (%rax)
  40507e:	e9 b5 00 00 00       	jmpq   405138 <effective_double_free_error+0x148>
  405083:	48 b8 60 40 40 00 00 	movabs $0x404060,%rax
  40508a:	00 00 00 
  40508d:	49 89 e6             	mov    %rsp,%r14
  405090:	be 20 00 00 00       	mov    $0x20,%esi
  405095:	4c 89 f7             	mov    %r14,%rdi
  405098:	ff d0                	callq  *%rax
  40509a:	89 c5                	mov    %eax,%ebp
  40509c:	48 b8 70 40 40 00 00 	movabs $0x404070,%rax
  4050a3:	00 00 00 
  4050a6:	4c 89 f7             	mov    %r14,%rdi
  4050a9:	89 ee                	mov    %ebp,%esi
  4050ab:	ff d0                	callq  *%rax
  4050ad:	89 6b 1c             	mov    %ebp,0x1c(%rbx)
  4050b0:	48 89 43 20          	mov    %rax,0x20(%rbx)
  4050b4:	48 c7 43 30 00 00 00 	movq   $0x0,0x30(%rbx)
  4050bb:	00 
  4050bc:	48 bb d8 01 41 00 00 	movabs $0x4101d8,%rbx
  4050c3:	00 00 00 
  4050c6:	48 8b 03             	mov    (%rbx),%rax
  4050c9:	48 83 f8 ff          	cmp    $0xffffffffffffffff,%rax
  4050cd:	74 69                	je     405138 <effective_double_free_error+0x148>
  4050cf:	48 bd 79 02 41 00 00 	movabs $0x410279,%rbp
  4050d6:	00 00 00 
  4050d9:	80 7d 00 01          	cmpb   $0x1,0x0(%rbp)
  4050dd:	75 11                	jne    4050f0 <effective_double_free_error+0x100>
  4050df:	48 b9 a8 02 41 00 00 	movabs $0x4102a8,%rcx
  4050e6:	00 00 00 
  4050e9:	48 39 01             	cmp    %rax,(%rcx)
  4050ec:	72 4a                	jb     405138 <effective_double_free_error+0x148>
  4050ee:	eb 54                	jmp    405144 <effective_double_free_error+0x154>
  4050f0:	48 bf 80 02 41 00 00 	movabs $0x410280,%rdi
  4050f7:	00 00 00 
  4050fa:	48 b8 50 40 40 00 00 	movabs $0x404050,%rax
  405101:	00 00 00 
  405104:	ff d0                	callq  *%rax
  405106:	8a 45 00             	mov    0x0(%rbp),%al
  405109:	48 b9 a8 02 41 00 00 	movabs $0x4102a8,%rcx
  405110:	00 00 00 
  405113:	48 8b 29             	mov    (%rcx),%rbp
  405116:	48 8b 1b             	mov    (%rbx),%rbx
  405119:	84 c0                	test   %al,%al
  40511b:	75 16                	jne    405133 <effective_double_free_error+0x143>
  40511d:	48 bf 80 02 41 00 00 	movabs $0x410280,%rdi
  405124:	00 00 00 
  405127:	48 b8 10 3f 40 00 00 	movabs $0x403f10,%rax
  40512e:	00 00 00 
  405131:	ff d0                	callq  *%rax
  405133:	48 39 dd             	cmp    %rbx,%rbp
  405136:	73 0c                	jae    405144 <effective_double_free_error+0x154>
  405138:	48 81 c4 10 01 00 00 	add    $0x110,%rsp
  40513f:	5b                   	pop    %rbx
  405140:	41 5e                	pop    %r14
  405142:	5d                   	pop    %rbp
  405143:	c3                   	retq   
  405144:	48 b8 a0 3f 40 00 00 	movabs $0x403fa0,%rax
  40514b:	00 00 00 
  40514e:	bf 01 00 00 00       	mov    $0x1,%edi
  405153:	ff d0                	callq  *%rax
  405155:	66 2e 0f 1f 84 00 00 	nopw   %cs:0x0(%rax,%rax,1)
  40515c:	00 00 00 
  40515f:	90                   	nop

0000000000405160 <effective_bad_free_error>:
  405160:	55                   	push   %rbp
  405161:	41 57                	push   %r15
  405163:	41 56                	push   %r14
  405165:	53                   	push   %rbx
  405166:	48 81 ec 08 01 00 00 	sub    $0x108,%rsp
  40516d:	49 89 f7             	mov    %rsi,%r15
  405170:	49 89 fe             	mov    %rdi,%r14
  405173:	48 b8 58 02 41 00 00 	movabs $0x410258,%rax
  40517a:	00 00 00 
  40517d:	80 38 01             	cmpb   $0x1,(%rax)
  405180:	75 22                	jne    4051a4 <effective_bad_free_error+0x44>
  405182:	48 b8 79 02 41 00 00 	movabs $0x410279,%rax
  405189:	00 00 00 
  40518c:	8a 00                	mov    (%rax),%al
  40518e:	84 c0                	test   %al,%al
  405190:	74 53                	je     4051e5 <effective_bad_free_error+0x85>
  405192:	48 b8 50 02 41 00 00 	movabs $0x410250,%rax
  405199:	00 00 00 
  40519c:	48 ff 00             	incq   (%rax)
  40519f:	e9 1e 01 00 00       	jmpq   4052c2 <effective_bad_free_error+0x162>
  4051a4:	48 b8 50 4b 40 00 00 	movabs $0x404b50,%rax
  4051ab:	00 00 00 
  4051ae:	48 bf 69 36 04 bd 42 	movabs $0xed8d9a42bd043669,%rdi
  4051b5:	9a 8d ed 
  4051b8:	ff d0                	callq  *%rax
  4051ba:	48 89 c3             	mov    %rax,%rbx
  4051bd:	48 85 db             	test   %rbx,%rbx
  4051c0:	0f 84 fc 00 00 00    	je     4052c2 <effective_bad_free_error+0x162>
  4051c6:	c7 43 18 03 00 00 00 	movl   $0x3,0x18(%rbx)
  4051cd:	4c 89 7b 28          	mov    %r15,0x28(%rbx)
  4051d1:	48 b8 78 02 41 00 00 	movabs $0x410278,%rax
  4051d8:	00 00 00 
  4051db:	8a 00                	mov    (%rax),%al
  4051dd:	84 c0                	test   %al,%al
  4051df:	74 17                	je     4051f8 <effective_bad_free_error+0x98>
  4051e1:	31 c0                	xor    %eax,%eax
  4051e3:	eb 40                	jmp    405225 <effective_bad_free_error+0xc5>
  4051e5:	48 b8 50 02 41 00 00 	movabs $0x410250,%rax
  4051ec:	00 00 00 
  4051ef:	f0 48 ff 00          	lock incq (%rax)
  4051f3:	e9 ca 00 00 00       	jmpq   4052c2 <effective_bad_free_error+0x162>
  4051f8:	48 b8 60 40 40 00 00 	movabs $0x404060,%rax
  4051ff:	00 00 00 
  405202:	49 89 e7             	mov    %rsp,%r15
  405205:	be 20 00 00 00       	mov    $0x20,%esi
  40520a:	4c 89 ff             	mov    %r15,%rdi
  40520d:	ff d0                	callq  *%rax
  40520f:	89 c5                	mov    %eax,%ebp
  405211:	48 b8 70 40 40 00 00 	movabs $0x404070,%rax
  405218:	00 00 00 
  40521b:	4c 89 ff             	mov    %r15,%rdi
  40521e:	89 ee                	mov    %ebp,%esi
  405220:	ff d0                	callq  *%rax
  405222:	89 6b 1c             	mov    %ebp,0x1c(%rbx)
  405225:	48 89 43 20          	mov    %rax,0x20(%rbx)
  405229:	48 b8 d0 40 40 00 00 	movabs $0x4040d0,%rax
  405230:	00 00 00 
  405233:	bf 08 00 00 00       	mov    $0x8,%edi
  405238:	ff d0                	callq  *%rax
  40523a:	48 89 43 30          	mov    %rax,0x30(%rbx)
  40523e:	48 85 c0             	test   %rax,%rax
  405241:	74 03                	je     405246 <effective_bad_free_error+0xe6>
  405243:	4c 89 30             	mov    %r14,(%rax)
  405246:	48 bb d8 01 41 00 00 	movabs $0x4101d8,%rbx
  40524d:	00 00 00 
  405250:	48 8b 03             	mov    (%rbx),%rax
  405253:	48 83 f8 ff          	cmp    $0xffffffffffffffff,%rax
  405257:	74 69                	je     4052c2 <effective_bad_free_error+0x162>
  405259:	48 bd 79 02 41 00 00 	movabs $0x410279,%rbp
  405260:	00 00 00 
  405263:	80 7d 00 01          	cmpb   $0x1,0x0(%rbp)
  405267:	75 11                	jne    40527a <effective_bad_free_error+0x11a>
  405269:	48 b9 a8 02 41 00 00 	movabs $0x4102a8,%rcx
  405270:	00 00 00 
  405273:	48 39 01             	cmp    %rax,(%rcx)
  405276:	72 4a                	jb     4052c2 <effective_bad_free_error+0x162>
  405278:	eb 56                	jmp    4052d0 <effective_bad_free_error+0x170>
  40527a:	48 bf 80 02 41 00 00 	movabs $0x410280,%rdi
  405281:	00 00 00 
  405284:	48 b8 50 40 40 00 00 	movabs $0x404050,%rax
  40528b:	00 00 00 
  40528e:	ff d0                	callq  *%rax
  405290:	8a 45 00             	mov    0x0(%rbp),%al
  405293:	48 b9 a8 02 41 00 00 	movabs $0x4102a8,%rcx
  40529a:	00 00 00 
  40529d:	48 8b 29             	mov    (%rcx),%rbp
  4052a0:	48 8b 1b             	mov    (%rbx),%rbx
  4052a3:	84 c0                	test   %al,%al
  4052a5:	75 16                	jne    4052bd <effective_bad_free_error+0x15d>
  4052a7:	48 bf 80 02 41 00 00 	movabs $0x410280,%rdi
  4052ae:	00 00 00 
  4052b1:	48 b8 10 3f 40 00 00 	movabs $0x403f10,%rax
  4052b8:	00 00 00 
  4052bb:	ff d0                	callq  *%rax
  4052bd:	48 39 dd             	cmp    %rbx,%rbp
  4052c0:	73 0e                	jae    4052d0 <effective_bad_free_error+0x170>
  4052c2:	48 81 c4 08 01 00 00 	add    $0x108,%rsp
  4052c9:	5b                   	pop    %rbx
  4052ca:	41 5e                	pop    %r14
  4052cc:	41 5f                	pop    %r15
  4052ce:	5d                   	pop    %rbp
  4052cf:	c3                   	retq   
  4052d0:	48 b8 a0 3f 40 00 00 	movabs $0x403fa0,%rax
  4052d7:	00 00 00 
  4052da:	bf 01 00 00 00       	mov    $0x1,%edi
  4052df:	ff d0                	callq  *%rax
  4052e1:	66 2e 0f 1f 84 00 00 	nopw   %cs:0x0(%rax,%rax,1)
  4052e8:	00 00 00 
  4052eb:	0f 1f 44 00 00       	nopl   0x0(%rax,%rax,1)

00000000004052f0 <effective_report>:
  4052f0:	55                   	push   %rbp
  4052f1:	41 57                	push   %r15
  4052f3:	41 56                	push   %r14
  4052f5:	41 55                	push   %r13
  4052f7:	41 54                	push   %r12
  4052f9:	53                   	push   %rbx
  4052fa:	48 81 ec e8 28 00 00 	sub    $0x28e8,%rsp
  405301:	48 b8 90 3e 40 00 00 	movabs $0x403e90,%rax
  405308:	00 00 00 
  40530b:	31 db                	xor    %ebx,%ebx
  40530d:	48 8d 74 24 48       	lea    0x48(%rsp),%rsi
  405312:	31 ff                	xor    %edi,%edi
  405314:	ff d0                	callq  *%rax
  405316:	85 c0                	test   %eax,%eax
  405318:	74 10                	je     40532a <effective_report+0x3a>
  40531a:	31 c0                	xor    %eax,%eax
  40531c:	48 89 44 24 10       	mov    %rax,0x10(%rsp)
  405321:	31 c0                	xor    %eax,%eax
  405323:	48 89 44 24 18       	mov    %rax,0x18(%rsp)
  405328:	eb 61                	jmp    40538b <effective_report+0x9b>
  40532a:	48 b9 cf f7 53 e3 a5 	movabs $0x20c49ba5e353f7cf,%rcx
  405331:	9b c4 20 
  405334:	48 89 c8             	mov    %rcx,%rax
  405337:	48 f7 6c 24 50       	imulq  0x50(%rsp)
  40533c:	48 89 d6             	mov    %rdx,%rsi
  40533f:	48 89 f0             	mov    %rsi,%rax
  405342:	48 c1 e8 3f          	shr    $0x3f,%rax
  405346:	48 c1 fe 07          	sar    $0x7,%rsi
  40534a:	48 01 c6             	add    %rax,%rsi
  40534d:	48 8b 7c 24 58       	mov    0x58(%rsp),%rdi
  405352:	48 89 c8             	mov    %rcx,%rax
  405355:	48 f7 6c 24 60       	imulq  0x60(%rsp)
  40535a:	48 89 d0             	mov    %rdx,%rax
  40535d:	48 c1 e8 3f          	shr    $0x3f,%rax
  405361:	48 c1 fa 07          	sar    $0x7,%rdx
  405365:	48 01 c2             	add    %rax,%rdx
  405368:	48 03 7c 24 48       	add    0x48(%rsp),%rdi
  40536d:	48 69 c7 e8 03 00 00 	imul   $0x3e8,%rdi,%rax
  405374:	48 01 f2             	add    %rsi,%rdx
  405377:	48 01 c2             	add    %rax,%rdx
  40537a:	48 89 54 24 18       	mov    %rdx,0x18(%rsp)
  40537f:	b3 01                	mov    $0x1,%bl
  405381:	48 8b 44 24 68       	mov    0x68(%rsp),%rax
  405386:	48 89 44 24 10       	mov    %rax,0x10(%rsp)
  40538b:	48 89 5c 24 28       	mov    %rbx,0x28(%rsp)
  405390:	48 bf 68 a3 40 00 00 	movabs $0x40a368,%rdi
  405397:	00 00 00 
  40539a:	48 b8 c0 3f 40 00 00 	movabs $0x403fc0,%rax
  4053a1:	00 00 00 
  4053a4:	ff d0                	callq  *%rax
  4053a6:	48 85 c0             	test   %rax,%rax
  4053a9:	74 26                	je     4053d1 <effective_report+0xe1>
  4053ab:	48 b9 00 02 41 00 00 	movabs $0x410200,%rcx
  4053b2:	00 00 00 
  4053b5:	48 8b 11             	mov    (%rcx),%rdx
  4053b8:	48 be 7a a3 40 00 00 	movabs $0x40a37a,%rsi
  4053bf:	00 00 00 
  4053c2:	48 b9 60 3f 40 00 00 	movabs $0x403f60,%rcx
  4053c9:	00 00 00 
  4053cc:	48 89 c7             	mov    %rax,%rdi
  4053cf:	ff d1                	callq  *%rcx
  4053d1:	48 b8 00 63 40 00 00 	movabs $0x406300,%rax
  4053d8:	00 00 00 
  4053db:	ff d0                	callq  *%rax
  4053dd:	48 b8 58 02 41 00 00 	movabs $0x410258,%rax
  4053e4:	00 00 00 
  4053e7:	8a 00                	mov    (%rax),%al
  4053e9:	84 c0                	test   %al,%al
  4053eb:	0f 85 ca 0d 00 00    	jne    4061bb <effective_report+0xecb>
  4053f1:	48 b8 38 02 41 00 00 	movabs $0x410238,%rax
  4053f8:	00 00 00 
  4053fb:	48 c7 00 00 00 00 00 	movq   $0x0,(%rax)
  405402:	48 b8 40 02 41 00 00 	movabs $0x410240,%rax
  405409:	00 00 00 
  40540c:	48 c7 00 00 00 00 00 	movq   $0x0,(%rax)
  405413:	48 b8 48 02 41 00 00 	movabs $0x410248,%rax
  40541a:	00 00 00 
  40541d:	48 c7 00 00 00 00 00 	movq   $0x0,(%rax)
  405424:	48 b8 50 02 41 00 00 	movabs $0x410250,%rax
  40542b:	00 00 00 
  40542e:	48 c7 00 00 00 00 00 	movq   $0x0,(%rax)
  405435:	48 b8 60 02 41 00 00 	movabs $0x410260,%rax
  40543c:	00 00 00 
  40543f:	48 83 38 00          	cmpq   $0x0,(%rax)
  405443:	0f 84 72 0d 00 00    	je     4061bb <effective_report+0xecb>
  405449:	48 bb 00 02 41 00 00 	movabs $0x410200,%rbx
  405450:	00 00 00 
  405453:	31 c9                	xor    %ecx,%ecx
  405455:	66 66 2e 0f 1f 84 00 	data16 nopw %cs:0x0(%rax,%rax,1)
  40545c:	00 00 00 00 
  405460:	48 b8 68 02 41 00 00 	movabs $0x410268,%rax
  405467:	00 00 00 
  40546a:	48 8b 00             	mov    (%rax),%rax
  40546d:	48 89 4c 24 40       	mov    %rcx,0x40(%rsp)
  405472:	4c 8b 34 c8          	mov    (%rax,%rcx,8),%r14
  405476:	4d 85 f6             	test   %r14,%r14
  405479:	0f 85 4e 01 00 00    	jne    4055cd <effective_report+0x2dd>
  40547f:	e9 1c 0d 00 00       	jmpq   4061a0 <effective_report+0xeb0>
  405484:	83 f8 1f             	cmp    $0x1f,%eax
  405487:	4c 8b 34 24          	mov    (%rsp),%r14
  40548b:	0f 8e 87 00 00 00    	jle    405518 <effective_report+0x228>
  405491:	48 b8 00 02 41 00 00 	movabs $0x410200,%rax
  405498:	00 00 00 
  40549b:	4c 8b 38             	mov    (%rax),%r15
  40549e:	bf 02 00 00 00       	mov    $0x2,%edi
  4054a3:	48 b8 e0 40 40 00 00 	movabs $0x4040e0,%rax
  4054aa:	00 00 00 
  4054ad:	48 89 c3             	mov    %rax,%rbx
  4054b0:	ff d3                	callq  *%rbx
  4054b2:	85 c0                	test   %eax,%eax
  4054b4:	48 b8 92 b1 40 00 00 	movabs $0x40b192,%rax
  4054bb:	00 00 00 
  4054be:	49 89 c6             	mov    %rax,%r14
  4054c1:	4c 89 f5             	mov    %r14,%rbp
  4054c4:	48 b8 68 a9 40 00 00 	movabs $0x40a968,%rax
  4054cb:	00 00 00 
  4054ce:	48 0f 45 e8          	cmovne %rax,%rbp
  4054d2:	bf 02 00 00 00       	mov    $0x2,%edi
  4054d7:	ff d3                	callq  *%rbx
  4054d9:	85 c0                	test   %eax,%eax
  4054db:	4c 89 f1             	mov    %r14,%rcx
  4054de:	48 b8 4b a9 40 00 00 	movabs $0x40a94b,%rax
  4054e5:	00 00 00 
  4054e8:	48 0f 45 c8          	cmovne %rax,%rcx
  4054ec:	31 c0                	xor    %eax,%eax
  4054ee:	4c 89 ff             	mov    %r15,%rdi
  4054f1:	4c 8b 34 24          	mov    (%rsp),%r14
  4054f5:	48 bb 00 02 41 00 00 	movabs $0x410200,%rbx
  4054fc:	00 00 00 
  4054ff:	48 be aa a8 40 00 00 	movabs $0x40a8aa,%rsi
  405506:	00 00 00 
  405509:	48 89 ea             	mov    %rbp,%rdx
  40550c:	48 bd 30 40 40 00 00 	movabs $0x404030,%rbp
  405513:	00 00 00 
  405516:	ff d5                	callq  *%rbp
  405518:	48 8b 33             	mov    (%rbx),%rsi
  40551b:	bf 0a 00 00 00       	mov    $0xa,%edi
  405520:	48 b8 d0 3f 40 00 00 	movabs $0x403fd0,%rax
  405527:	00 00 00 
  40552a:	ff d0                	callq  *%rax
  40552c:	e9 8f 00 00 00       	jmpq   4055c0 <effective_report+0x2d0>
  405531:	48 b8 00 02 41 00 00 	movabs $0x410200,%rax
  405538:	00 00 00 
  40553b:	4c 8b 20             	mov    (%rax),%r12
  40553e:	bf 02 00 00 00       	mov    $0x2,%edi
  405543:	48 b8 e0 40 40 00 00 	movabs $0x4040e0,%rax
  40554a:	00 00 00 
  40554d:	48 89 c5             	mov    %rax,%rbp
  405550:	ff d5                	callq  *%rbp
  405552:	85 c0                	test   %eax,%eax
  405554:	48 b8 92 b1 40 00 00 	movabs $0x40b192,%rax
  40555b:	00 00 00 
  40555e:	49 89 c7             	mov    %rax,%r15
  405561:	4c 89 fb             	mov    %r15,%rbx
  405564:	48 b8 56 a9 40 00 00 	movabs $0x40a956,%rax
  40556b:	00 00 00 
  40556e:	48 0f 45 d8          	cmovne %rax,%rbx
  405572:	bf 02 00 00 00       	mov    $0x2,%edi
  405577:	ff d5                	callq  *%rbp
  405579:	85 c0                	test   %eax,%eax
  40557b:	4c 89 f9             	mov    %r15,%rcx
  40557e:	48 b8 4b a9 40 00 00 	movabs $0x40a94b,%rax
  405585:	00 00 00 
  405588:	48 0f 45 c8          	cmovne %rax,%rcx
  40558c:	31 c0                	xor    %eax,%eax
  40558e:	4c 89 e7             	mov    %r12,%rdi
  405591:	48 be c3 a7 40 00 00 	movabs $0x40a7c3,%rsi
  405598:	00 00 00 
  40559b:	48 89 da             	mov    %rbx,%rdx
  40559e:	48 bd 30 40 40 00 00 	movabs $0x404030,%rbp
  4055a5:	00 00 00 
  4055a8:	ff d5                	callq  *%rbp
  4055aa:	48 8b 6c 24 08       	mov    0x8(%rsp),%rbp
  4055af:	e9 05 0a 00 00       	jmpq   405fb9 <effective_report+0xcc9>
  4055b4:	66 66 66 2e 0f 1f 84 	data16 data16 nopw %cs:0x0(%rax,%rax,1)
  4055bb:	00 00 00 00 00 
  4055c0:	4d 8b 76 08          	mov    0x8(%r14),%r14
  4055c4:	4d 85 f6             	test   %r14,%r14
  4055c7:	0f 84 d3 0b 00 00    	je     4061a0 <effective_report+0xeb0>
  4055cd:	49 83 3e 00          	cmpq   $0x0,(%r14)
  4055d1:	74 ed                	je     4055c0 <effective_report+0x2d0>
  4055d3:	41 8b 46 18          	mov    0x18(%r14),%eax
  4055d7:	48 83 f8 03          	cmp    $0x3,%rax
  4055db:	4c 89 34 24          	mov    %r14,(%rsp)
  4055df:	77 42                	ja     405623 <effective_report+0x333>
  4055e1:	48 b9 20 a3 40 00 00 	movabs $0x40a320,%rcx
  4055e8:	00 00 00 
  4055eb:	48 63 04 81          	movslq (%rcx,%rax,4),%rax
  4055ef:	48 01 c8             	add    %rcx,%rax
  4055f2:	ff e0                	jmpq   *%rax
  4055f4:	49 8b 46 30          	mov    0x30(%r14),%rax
  4055f8:	48 85 c0             	test   %rax,%rax
  4055fb:	74 1a                	je     405617 <effective_report+0x327>
  4055fd:	48 b9 00 fc 40 00 00 	movabs $0x40fc00,%rcx
  405604:	00 00 00 
  405607:	48 39 48 10          	cmp    %rcx,0x10(%rax)
  40560b:	49 bc 76 a6 40 00 00 	movabs $0x40a676,%r12
  405612:	00 00 00 
  405615:	74 4c                	je     405663 <effective_report+0x373>
  405617:	49 bc 85 a6 40 00 00 	movabs $0x40a685,%r12
  40561e:	00 00 00 
  405621:	eb 40                	jmp    405663 <effective_report+0x373>
  405623:	45 31 e4             	xor    %r12d,%r12d
  405626:	eb 3b                	jmp    405663 <effective_report+0x373>
  405628:	49 8b 46 30          	mov    0x30(%r14),%rax
  40562c:	48 85 c0             	test   %rax,%rax
  40562f:	74 10                	je     405641 <effective_report+0x351>
  405631:	80 78 30 00          	cmpb   $0x0,0x30(%rax)
  405635:	49 bc 8a a6 40 00 00 	movabs $0x40a68a,%r12
  40563c:	00 00 00 
  40563f:	75 22                	jne    405663 <effective_report+0x373>
  405641:	49 bc 94 a6 40 00 00 	movabs $0x40a694,%r12
  405648:	00 00 00 
  40564b:	eb 16                	jmp    405663 <effective_report+0x373>
  40564d:	49 bc 9b a6 40 00 00 	movabs $0x40a69b,%r12
  405654:	00 00 00 
  405657:	eb 0a                	jmp    405663 <effective_report+0x373>
  405659:	49 bc a7 a6 40 00 00 	movabs $0x40a6a7,%r12
  405660:	00 00 00 
  405663:	48 8b 2b             	mov    (%rbx),%rbp
  405666:	bf 02 00 00 00       	mov    $0x2,%edi
  40566b:	49 bd e0 40 40 00 00 	movabs $0x4040e0,%r13
  405672:	00 00 00 
  405675:	41 ff d5             	callq  *%r13
  405678:	85 c0                	test   %eax,%eax
  40567a:	49 bf 92 b1 40 00 00 	movabs $0x40b192,%r15
  405681:	00 00 00 
  405684:	4c 89 fb             	mov    %r15,%rbx
  405687:	48 b8 50 a9 40 00 00 	movabs $0x40a950,%rax
  40568e:	00 00 00 
  405691:	48 0f 45 d8          	cmovne %rax,%rbx
  405695:	bf 02 00 00 00       	mov    $0x2,%edi
  40569a:	41 ff d5             	callq  *%r13
  40569d:	85 c0                	test   %eax,%eax
  40569f:	48 b8 4b a9 40 00 00 	movabs $0x40a94b,%rax
  4056a6:	00 00 00 
  4056a9:	4c 0f 45 f8          	cmovne %rax,%r15
  4056ad:	31 c0                	xor    %eax,%eax
  4056af:	48 89 ef             	mov    %rbp,%rdi
  4056b2:	48 be b0 a6 40 00 00 	movabs $0x40a6b0,%rsi
  4056b9:	00 00 00 
  4056bc:	48 89 da             	mov    %rbx,%rdx
  4056bf:	48 bb 00 02 41 00 00 	movabs $0x410200,%rbx
  4056c6:	00 00 00 
  4056c9:	4c 89 e1             	mov    %r12,%rcx
  4056cc:	4d 89 f8             	mov    %r15,%r8
  4056cf:	48 bd 30 40 40 00 00 	movabs $0x404030,%rbp
  4056d6:	00 00 00 
  4056d9:	ff d5                	callq  *%rbp
  4056db:	4c 8b 34 24          	mov    (%rsp),%r14
  4056df:	49 8b 56 10          	mov    0x10(%r14),%rdx
  4056e3:	48 83 fa 01          	cmp    $0x1,%rdx
  4056e7:	74 1b                	je     405704 <effective_report+0x414>
  4056e9:	48 8b 3b             	mov    (%rbx),%rdi
  4056ec:	31 c0                	xor    %eax,%eax
  4056ee:	48 be bf a6 40 00 00 	movabs $0x40a6bf,%rsi
  4056f5:	00 00 00 
  4056f8:	48 b9 30 40 40 00 00 	movabs $0x404030,%rcx
  4056ff:	00 00 00 
  405702:	ff d1                	callq  *%rcx
  405704:	41 8b 46 18          	mov    0x18(%r14),%eax
  405708:	48 83 f8 03          	cmp    $0x3,%rax
  40570c:	0f 87 6d 09 00 00    	ja     40607f <effective_report+0xd8f>
  405712:	48 b9 30 a3 40 00 00 	movabs $0x40a330,%rcx
  405719:	00 00 00 
  40571c:	48 63 04 81          	movslq (%rcx,%rax,4),%rax
  405720:	48 01 c8             	add    %rcx,%rax
  405723:	ff e0                	jmpq   *%rax
  405725:	4d 8b 7e 30          	mov    0x30(%r14),%r15
  405729:	48 b8 38 02 41 00 00 	movabs $0x410238,%rax
  405730:	00 00 00 
  405733:	48 ff 00             	incq   (%rax)
  405736:	4d 85 ff             	test   %r15,%r15
  405739:	0f 84 40 09 00 00    	je     40607f <effective_report+0xd8f>
  40573f:	49 8b 2f             	mov    (%r15),%rbp
  405742:	48 8b 1b             	mov    (%rbx),%rbx
  405745:	48 89 ef             	mov    %rbp,%rdi
  405748:	48 b8 50 84 40 00 00 	movabs $0x408450,%rax
  40574f:	00 00 00 
  405752:	ff d0                	callq  *%rax
  405754:	84 c0                	test   %al,%al
  405756:	48 b9 c6 a8 40 00 00 	movabs $0x40a8c6,%rcx
  40575d:	00 00 00 
  405760:	75 63                	jne    4057c5 <effective_report+0x4d5>
  405762:	48 89 ef             	mov    %rbp,%rdi
  405765:	48 b8 90 84 40 00 00 	movabs $0x408490,%rax
  40576c:	00 00 00 
  40576f:	ff d0                	callq  *%rax
  405771:	84 c0                	test   %al,%al
  405773:	48 b9 a3 ac 40 00 00 	movabs $0x40aca3,%rcx
  40577a:	00 00 00 
  40577d:	75 46                	jne    4057c5 <effective_report+0x4d5>
  40577f:	48 89 ef             	mov    %rbp,%rdi
  405782:	48 b8 b0 98 40 00 00 	movabs $0x4098b0,%rax
  405789:	00 00 00 
  40578c:	ff d0                	callq  *%rax
  40578e:	84 c0                	test   %al,%al
  405790:	48 b9 cb a8 40 00 00 	movabs $0x40a8cb,%rcx
  405797:	00 00 00 
  40579a:	75 29                	jne    4057c5 <effective_report+0x4d5>
  40579c:	48 89 ef             	mov    %rbp,%rdi
  40579f:	48 b8 40 84 40 00 00 	movabs $0x408440,%rax
  4057a6:	00 00 00 
  4057a9:	ff d0                	callq  *%rax
  4057ab:	84 c0                	test   %al,%al
  4057ad:	48 b9 d2 a8 40 00 00 	movabs $0x40a8d2,%rcx
  4057b4:	00 00 00 
  4057b7:	48 b8 d9 a8 40 00 00 	movabs $0x40a8d9,%rax
  4057be:	00 00 00 
  4057c1:	48 0f 45 c8          	cmovne %rax,%rcx
  4057c5:	31 c0                	xor    %eax,%eax
  4057c7:	48 89 df             	mov    %rbx,%rdi
  4057ca:	48 be d7 a6 40 00 00 	movabs $0x40a6d7,%rsi
  4057d1:	00 00 00 
  4057d4:	48 89 ea             	mov    %rbp,%rdx
  4057d7:	48 bd 30 40 40 00 00 	movabs $0x404030,%rbp
  4057de:	00 00 00 
  4057e1:	ff d5                	callq  *%rbp
  4057e3:	c7 84 24 e0 08 00 00 	movl   $0x0,0x8e0(%rsp)
  4057ea:	00 00 00 00 
  4057ee:	c6 84 24 e4 08 00 00 	movb   $0x0,0x8e4(%rsp)
  4057f5:	00 
  4057f6:	49 8b 5f 08          	mov    0x8(%r15),%rbx
  4057fa:	48 85 db             	test   %rbx,%rbx
  4057fd:	48 8d ac 24 e0 08 00 	lea    0x8e0(%rsp),%rbp
  405804:	00 
  405805:	0f 84 0f 03 00 00    	je     405b1a <effective_report+0x82a>
  40580b:	bf 1e 00 00 00       	mov    $0x1e,%edi
  405810:	48 b8 d0 3e 40 00 00 	movabs $0x403ed0,%rax
  405817:	00 00 00 
  40581a:	ff d0                	callq  *%rax
  40581c:	48 89 c1             	mov    %rax,%rcx
  40581f:	31 d2                	xor    %edx,%edx
  405821:	48 89 d8             	mov    %rbx,%rax
  405824:	48 f7 f1             	div    %rcx
  405827:	48 89 df             	mov    %rbx,%rdi
  40582a:	48 29 d7             	sub    %rdx,%rdi
  40582d:	be 01 00 00 00       	mov    $0x1,%esi
  405832:	48 8d 94 24 d8 00 00 	lea    0xd8(%rsp),%rdx
  405839:	00 
  40583a:	48 b8 b0 3e 40 00 00 	movabs $0x403eb0,%rax
  405841:	00 00 00 
  405844:	ff d0                	callq  *%rax
  405846:	85 c0                	test   %eax,%eax
  405848:	0f 88 cc 02 00 00    	js     405b1a <effective_report+0x82a>
  40584e:	81 7b 1c 9b f9 eb 4f 	cmpl   $0x4febf99b,0x1c(%rbx)
  405855:	0f 85 bf 02 00 00    	jne    405b1a <effective_report+0x82a>
  40585b:	4d 89 fe             	mov    %r15,%r14
  40585e:	49 8b 47 08          	mov    0x8(%r15),%rax
  405862:	48 8b 70 30          	mov    0x30(%rax),%rsi
  405866:	31 d2                	xor    %edx,%edx
  405868:	b9 01 00 00 00       	mov    $0x1,%ecx
  40586d:	45 31 c0             	xor    %r8d,%r8d
  405870:	48 89 ef             	mov    %rbp,%rdi
  405873:	48 b8 d0 6b 40 00 00 	movabs $0x406bd0,%rax
  40587a:	00 00 00 
  40587d:	ff d0                	callq  *%rax
  40587f:	e9 b2 02 00 00       	jmpq   405b36 <effective_report+0x846>
  405884:	4d 8b 7e 30          	mov    0x30(%r14),%r15
  405888:	48 b8 40 02 41 00 00 	movabs $0x410240,%rax
  40588f:	00 00 00 
  405892:	48 ff 00             	incq   (%rax)
  405895:	4d 85 ff             	test   %r15,%r15
  405898:	0f 84 e1 07 00 00    	je     40607f <effective_report+0xd8f>
  40589e:	49 8b 2f             	mov    (%r15),%rbp
  4058a1:	48 8b 1b             	mov    (%rbx),%rbx
  4058a4:	48 89 ef             	mov    %rbp,%rdi
  4058a7:	48 b8 50 84 40 00 00 	movabs $0x408450,%rax
  4058ae:	00 00 00 
  4058b1:	ff d0                	callq  *%rax
  4058b3:	84 c0                	test   %al,%al
  4058b5:	48 b9 c6 a8 40 00 00 	movabs $0x40a8c6,%rcx
  4058bc:	00 00 00 
  4058bf:	75 63                	jne    405924 <effective_report+0x634>
  4058c1:	48 89 ef             	mov    %rbp,%rdi
  4058c4:	48 b8 90 84 40 00 00 	movabs $0x408490,%rax
  4058cb:	00 00 00 
  4058ce:	ff d0                	callq  *%rax
  4058d0:	84 c0                	test   %al,%al
  4058d2:	48 b9 a3 ac 40 00 00 	movabs $0x40aca3,%rcx
  4058d9:	00 00 00 
  4058dc:	75 46                	jne    405924 <effective_report+0x634>
  4058de:	48 89 ef             	mov    %rbp,%rdi
  4058e1:	48 b8 b0 98 40 00 00 	movabs $0x4098b0,%rax
  4058e8:	00 00 00 
  4058eb:	ff d0                	callq  *%rax
  4058ed:	84 c0                	test   %al,%al
  4058ef:	48 b9 cb a8 40 00 00 	movabs $0x40a8cb,%rcx
  4058f6:	00 00 00 
  4058f9:	75 29                	jne    405924 <effective_report+0x634>
  4058fb:	48 89 ef             	mov    %rbp,%rdi
  4058fe:	48 b8 40 84 40 00 00 	movabs $0x408440,%rax
  405905:	00 00 00 
  405908:	ff d0                	callq  *%rax
  40590a:	84 c0                	test   %al,%al
  40590c:	48 b9 d2 a8 40 00 00 	movabs $0x40a8d2,%rcx
  405913:	00 00 00 
  405916:	48 b8 d9 a8 40 00 00 	movabs $0x40a8d9,%rax
  40591d:	00 00 00 
  405920:	48 0f 45 c8          	cmovne %rax,%rcx
  405924:	31 c0                	xor    %eax,%eax
  405926:	48 89 df             	mov    %rbx,%rdi
  405929:	48 be d7 a6 40 00 00 	movabs $0x40a6d7,%rsi
  405930:	00 00 00 
  405933:	48 89 ea             	mov    %rbp,%rdx
  405936:	48 bd 30 40 40 00 00 	movabs $0x404030,%rbp
  40593d:	00 00 00 
  405940:	ff d5                	callq  *%rbp
  405942:	48 b8 00 02 41 00 00 	movabs $0x410200,%rax
  405949:	00 00 00 
  40594c:	48 8b 08             	mov    (%rax),%rcx
  40594f:	be 13 00 00 00       	mov    $0x13,%esi
  405954:	ba 01 00 00 00       	mov    $0x1,%edx
  405959:	48 bf e1 a7 40 00 00 	movabs $0x40a7e1,%rdi
  405960:	00 00 00 
  405963:	48 b8 20 41 40 00 00 	movabs $0x404120,%rax
  40596a:	00 00 00 
  40596d:	ff d0                	callq  *%rax
  40596f:	49 8b 5f 08          	mov    0x8(%r15),%rbx
  405973:	4d 8b 77 10          	mov    0x10(%r15),%r14
  405977:	49 8b 6f 18          	mov    0x18(%r15),%rbp
  40597b:	48 85 db             	test   %rbx,%rbx
  40597e:	48 89 6c 24 08       	mov    %rbp,0x8(%rsp)
  405983:	4c 89 7c 24 20       	mov    %r15,0x20(%rsp)
  405988:	0f 84 a3 fb ff ff    	je     405531 <effective_report+0x241>
  40598e:	bf 1e 00 00 00       	mov    $0x1e,%edi
  405993:	48 b8 d0 3e 40 00 00 	movabs $0x403ed0,%rax
  40599a:	00 00 00 
  40599d:	ff d0                	callq  *%rax
  40599f:	48 89 c1             	mov    %rax,%rcx
  4059a2:	31 d2                	xor    %edx,%edx
  4059a4:	48 89 d8             	mov    %rbx,%rax
  4059a7:	48 f7 f1             	div    %rcx
  4059aa:	48 89 df             	mov    %rbx,%rdi
  4059ad:	48 29 d7             	sub    %rdx,%rdi
  4059b0:	be 01 00 00 00       	mov    $0x1,%esi
  4059b5:	48 8d 94 24 e0 08 00 	lea    0x8e0(%rsp),%rdx
  4059bc:	00 
  4059bd:	48 b8 b0 3e 40 00 00 	movabs $0x403eb0,%rax
  4059c4:	00 00 00 
  4059c7:	ff d0                	callq  *%rax
  4059c9:	85 c0                	test   %eax,%eax
  4059cb:	0f 88 60 fb ff ff    	js     405531 <effective_report+0x241>
  4059d1:	81 7b 1c 9b f9 eb 4f 	cmpl   $0x4febf99b,0x1c(%rbx)
  4059d8:	0f 85 53 fb ff ff    	jne    405531 <effective_report+0x241>
  4059de:	49 8b 47 08          	mov    0x8(%r15),%rax
  4059e2:	48 8b 70 30          	mov    0x30(%rax),%rsi
  4059e6:	48 c7 84 24 d8 00 00 	movq   $0x0,0xd8(%rsp)
  4059ed:	00 00 00 00 00 
  4059f2:	4c 89 f0             	mov    %r14,%rax
  4059f5:	48 b9 ff ff ff ff ff 	movabs $0xffffffffff,%rcx
  4059fc:	00 00 00 
  4059ff:	48 21 c8             	and    %rcx,%rax
  405a02:	48 89 84 24 e0 00 00 	mov    %rax,0xe0(%rsp)
  405a09:	00 
  405a0a:	48 89 b4 24 e8 00 00 	mov    %rsi,0xe8(%rsp)
  405a11:	00 
  405a12:	4c 29 f5             	sub    %r14,%rbp
  405a15:	48 89 6c 24 30       	mov    %rbp,0x30(%rsp)
  405a1a:	45 31 ff             	xor    %r15d,%r15d
  405a1d:	45 31 e4             	xor    %r12d,%r12d
  405a20:	e9 72 03 00 00       	jmpq   405d97 <effective_report+0xaa7>
  405a25:	48 b8 48 02 41 00 00 	movabs $0x410248,%rax
  405a2c:	00 00 00 
  405a2f:	48 ff 00             	incq   (%rax)
  405a32:	49 83 7e 20 00       	cmpq   $0x0,0x20(%r14)
  405a37:	0f 84 db fa ff ff    	je     405518 <effective_report+0x228>
  405a3d:	e9 48 06 00 00       	jmpq   40608a <effective_report+0xd9a>
  405a42:	49 8b 46 30          	mov    0x30(%r14),%rax
  405a46:	48 85 c0             	test   %rax,%rax
  405a49:	0f 84 30 06 00 00    	je     40607f <effective_report+0xd8f>
  405a4f:	48 b9 50 02 41 00 00 	movabs $0x410250,%rcx
  405a56:	00 00 00 
  405a59:	48 ff 01             	incq   (%rcx)
  405a5c:	48 8b 28             	mov    (%rax),%rbp
  405a5f:	48 8b 1b             	mov    (%rbx),%rbx
  405a62:	48 89 ef             	mov    %rbp,%rdi
  405a65:	48 b8 50 84 40 00 00 	movabs $0x408450,%rax
  405a6c:	00 00 00 
  405a6f:	ff d0                	callq  *%rax
  405a71:	84 c0                	test   %al,%al
  405a73:	48 b9 c6 a8 40 00 00 	movabs $0x40a8c6,%rcx
  405a7a:	00 00 00 
  405a7d:	75 63                	jne    405ae2 <effective_report+0x7f2>
  405a7f:	48 89 ef             	mov    %rbp,%rdi
  405a82:	48 b8 90 84 40 00 00 	movabs $0x408490,%rax
  405a89:	00 00 00 
  405a8c:	ff d0                	callq  *%rax
  405a8e:	84 c0                	test   %al,%al
  405a90:	48 b9 a3 ac 40 00 00 	movabs $0x40aca3,%rcx
  405a97:	00 00 00 
  405a9a:	75 46                	jne    405ae2 <effective_report+0x7f2>
  405a9c:	48 89 ef             	mov    %rbp,%rdi
  405a9f:	48 b8 b0 98 40 00 00 	movabs $0x4098b0,%rax
  405aa6:	00 00 00 
  405aa9:	ff d0                	callq  *%rax
  405aab:	84 c0                	test   %al,%al
  405aad:	48 b9 cb a8 40 00 00 	movabs $0x40a8cb,%rcx
  405ab4:	00 00 00 
  405ab7:	75 29                	jne    405ae2 <effective_report+0x7f2>
  405ab9:	48 89 ef             	mov    %rbp,%rdi
  405abc:	48 b8 40 84 40 00 00 	movabs $0x408440,%rax
  405ac3:	00 00 00 
  405ac6:	ff d0                	callq  *%rax
  405ac8:	84 c0                	test   %al,%al
  405aca:	48 b9 d2 a8 40 00 00 	movabs $0x40a8d2,%rcx
  405ad1:	00 00 00 
  405ad4:	48 b8 d9 a8 40 00 00 	movabs $0x40a8d9,%rax
  405adb:	00 00 00 
  405ade:	48 0f 45 c8          	cmovne %rax,%rcx
  405ae2:	31 c0                	xor    %eax,%eax
  405ae4:	48 89 df             	mov    %rbx,%rdi
  405ae7:	48 be d7 a6 40 00 00 	movabs $0x40a6d7,%rsi
  405aee:	00 00 00 
  405af1:	48 89 ea             	mov    %rbp,%rdx
  405af4:	48 bd 30 40 40 00 00 	movabs $0x404030,%rbp
  405afb:	00 00 00 
  405afe:	ff d5                	callq  *%rbp
  405b00:	48 bb 00 02 41 00 00 	movabs $0x410200,%rbx
  405b07:	00 00 00 
  405b0a:	49 83 7e 20 00       	cmpq   $0x0,0x20(%r14)
  405b0f:	0f 84 03 fa ff ff    	je     405518 <effective_report+0x228>
  405b15:	e9 70 05 00 00       	jmpq   40608a <effective_report+0xd9a>
  405b1a:	4d 89 fe             	mov    %r15,%r14
  405b1d:	48 89 ef             	mov    %rbp,%rdi
  405b20:	48 be f3 a6 40 00 00 	movabs $0x40a6f3,%rsi
  405b27:	00 00 00 
  405b2a:	48 b8 f0 70 40 00 00 	movabs $0x4070f0,%rax
  405b31:	00 00 00 
  405b34:	ff d0                	callq  *%rax
  405b36:	31 f6                	xor    %esi,%esi
  405b38:	48 89 ef             	mov    %rbp,%rdi
  405b3b:	48 b8 30 71 40 00 00 	movabs $0x407130,%rax
  405b42:	00 00 00 
  405b45:	ff d0                	callq  *%rax
  405b47:	48 b8 00 02 41 00 00 	movabs $0x410200,%rax
  405b4e:	00 00 00 
  405b51:	48 89 c3             	mov    %rax,%rbx
  405b54:	4c 8b 2b             	mov    (%rbx),%r13
  405b57:	bf 02 00 00 00       	mov    $0x2,%edi
  405b5c:	49 bf e0 40 40 00 00 	movabs $0x4040e0,%r15
  405b63:	00 00 00 
  405b66:	41 ff d7             	callq  *%r15
  405b69:	85 c0                	test   %eax,%eax
  405b6b:	49 bc 92 b1 40 00 00 	movabs $0x40b192,%r12
  405b72:	00 00 00 
  405b75:	4c 89 e5             	mov    %r12,%rbp
  405b78:	48 b8 56 a9 40 00 00 	movabs $0x40a956,%rax
  405b7f:	00 00 00 
  405b82:	48 0f 45 e8          	cmovne %rax,%rbp
  405b86:	bf 02 00 00 00       	mov    $0x2,%edi
  405b8b:	41 ff d7             	callq  *%r15
  405b8e:	85 c0                	test   %eax,%eax
  405b90:	48 b8 4b a9 40 00 00 	movabs $0x40a94b,%rax
  405b97:	00 00 00 
  405b9a:	4c 0f 45 e0          	cmovne %rax,%r12
  405b9e:	31 c0                	xor    %eax,%eax
  405ba0:	4c 89 ef             	mov    %r13,%rdi
  405ba3:	48 be 0c a7 40 00 00 	movabs $0x40a70c,%rsi
  405baa:	00 00 00 
  405bad:	48 89 ea             	mov    %rbp,%rdx
  405bb0:	48 8d 8c 24 e5 08 00 	lea    0x8e5(%rsp),%rcx
  405bb7:	00 
  405bb8:	4d 89 e0             	mov    %r12,%r8
  405bbb:	48 bd 30 40 40 00 00 	movabs $0x404030,%rbp
  405bc2:	00 00 00 
  405bc5:	ff d5                	callq  *%rbp
  405bc7:	48 8b 0b             	mov    (%rbx),%rcx
  405bca:	be 13 00 00 00       	mov    $0x13,%esi
  405bcf:	ba 01 00 00 00       	mov    $0x1,%edx
  405bd4:	48 bf 27 a7 40 00 00 	movabs $0x40a727,%rdi
  405bdb:	00 00 00 
  405bde:	48 b8 20 41 40 00 00 	movabs $0x404120,%rax
  405be5:	00 00 00 
  405be8:	ff d0                	callq  *%rax
  405bea:	49 8b 5e 10          	mov    0x10(%r14),%rbx
  405bee:	48 85 db             	test   %rbx,%rbx
  405bf1:	0f 84 ed 00 00 00    	je     405ce4 <effective_report+0x9f4>
  405bf7:	bf 1e 00 00 00       	mov    $0x1e,%edi
  405bfc:	48 b8 d0 3e 40 00 00 	movabs $0x403ed0,%rax
  405c03:	00 00 00 
  405c06:	ff d0                	callq  *%rax
  405c08:	48 89 c1             	mov    %rax,%rcx
  405c0b:	31 d2                	xor    %edx,%edx
  405c0d:	48 89 d8             	mov    %rbx,%rax
  405c10:	48 f7 f1             	div    %rcx
  405c13:	48 89 df             	mov    %rbx,%rdi
  405c16:	48 29 d7             	sub    %rdx,%rdi
  405c19:	be 01 00 00 00       	mov    $0x1,%esi
  405c1e:	48 8d 94 24 d8 00 00 	lea    0xd8(%rsp),%rdx
  405c25:	00 
  405c26:	48 b8 b0 3e 40 00 00 	movabs $0x403eb0,%rax
  405c2d:	00 00 00 
  405c30:	ff d0                	callq  *%rax
  405c32:	85 c0                	test   %eax,%eax
  405c34:	0f 88 aa 00 00 00    	js     405ce4 <effective_report+0x9f4>
  405c3a:	81 7b 1c 9b f9 eb 4f 	cmpl   $0x4febf99b,0x1c(%rbx)
  405c41:	0f 85 9d 00 00 00    	jne    405ce4 <effective_report+0x9f4>
  405c47:	49 8b 46 10          	mov    0x10(%r14),%rax
  405c4b:	49 8b 56 18          	mov    0x18(%r14),%rdx
  405c4f:	48 8b 78 30          	mov    0x30(%rax),%rdi
  405c53:	be 13 00 00 00       	mov    $0x13,%esi
  405c58:	48 b8 d0 69 40 00 00 	movabs $0x4069d0,%rax
  405c5f:	00 00 00 
  405c62:	ff d0                	callq  *%rax
  405c64:	49 8b 46 10          	mov    0x10(%r14),%rax
  405c68:	48 8b 40 30          	mov    0x30(%rax),%rax
  405c6c:	f6 40 10 04          	testb  $0x4,0x10(%rax)
  405c70:	0f 84 e6 00 00 00    	je     405d5c <effective_report+0xa6c>
  405c76:	48 b8 00 02 41 00 00 	movabs $0x410200,%rax
  405c7d:	00 00 00 
  405c80:	4c 8b 38             	mov    (%rax),%r15
  405c83:	bf 02 00 00 00       	mov    $0x2,%edi
  405c88:	48 b8 e0 40 40 00 00 	movabs $0x4040e0,%rax
  405c8f:	00 00 00 
  405c92:	49 89 c4             	mov    %rax,%r12
  405c95:	41 ff d4             	callq  *%r12
  405c98:	85 c0                	test   %eax,%eax
  405c9a:	48 b8 92 b1 40 00 00 	movabs $0x40b192,%rax
  405ca1:	00 00 00 
  405ca4:	48 89 c3             	mov    %rax,%rbx
  405ca7:	48 89 dd             	mov    %rbx,%rbp
  405caa:	48 b8 62 a9 40 00 00 	movabs $0x40a962,%rax
  405cb1:	00 00 00 
  405cb4:	48 0f 45 e8          	cmovne %rax,%rbp
  405cb8:	bf 02 00 00 00       	mov    $0x2,%edi
  405cbd:	41 ff d4             	callq  *%r12
  405cc0:	85 c0                	test   %eax,%eax
  405cc2:	48 89 d9             	mov    %rbx,%rcx
  405cc5:	48 b8 4b a9 40 00 00 	movabs $0x40a94b,%rax
  405ccc:	00 00 00 
  405ccf:	48 0f 45 c8          	cmovne %rax,%rcx
  405cd3:	31 c0                	xor    %eax,%eax
  405cd5:	4c 89 ff             	mov    %r15,%rdi
  405cd8:	48 be 3b a7 40 00 00 	movabs $0x40a73b,%rsi
  405cdf:	00 00 00 
  405ce2:	eb 69                	jmp    405d4d <effective_report+0xa5d>
  405ce4:	48 b8 00 02 41 00 00 	movabs $0x410200,%rax
  405ceb:	00 00 00 
  405cee:	4c 8b 38             	mov    (%rax),%r15
  405cf1:	bf 02 00 00 00       	mov    $0x2,%edi
  405cf6:	49 bd e0 40 40 00 00 	movabs $0x4040e0,%r13
  405cfd:	00 00 00 
  405d00:	41 ff d5             	callq  *%r13
  405d03:	85 c0                	test   %eax,%eax
  405d05:	48 b8 92 b1 40 00 00 	movabs $0x40b192,%rax
  405d0c:	00 00 00 
  405d0f:	48 89 c3             	mov    %rax,%rbx
  405d12:	48 89 dd             	mov    %rbx,%rbp
  405d15:	48 b8 56 a9 40 00 00 	movabs $0x40a956,%rax
  405d1c:	00 00 00 
  405d1f:	48 0f 45 e8          	cmovne %rax,%rbp
  405d23:	bf 02 00 00 00       	mov    $0x2,%edi
  405d28:	41 ff d5             	callq  *%r13
  405d2b:	85 c0                	test   %eax,%eax
  405d2d:	48 89 d9             	mov    %rbx,%rcx
  405d30:	48 b8 4b a9 40 00 00 	movabs $0x40a94b,%rax
  405d37:	00 00 00 
  405d3a:	48 0f 45 c8          	cmovne %rax,%rcx
  405d3e:	31 c0                	xor    %eax,%eax
  405d40:	4c 89 ff             	mov    %r15,%rdi
  405d43:	48 be c3 a7 40 00 00 	movabs $0x40a7c3,%rsi
  405d4a:	00 00 00 
  405d4d:	48 89 ea             	mov    %rbp,%rdx
  405d50:	48 bd 30 40 40 00 00 	movabs $0x404030,%rbp
  405d57:	00 00 00 
  405d5a:	ff d5                	callq  *%rbp
  405d5c:	48 bb 00 02 41 00 00 	movabs $0x410200,%rbx
  405d63:	00 00 00 
  405d66:	4c 8b 34 24          	mov    (%rsp),%r14
  405d6a:	49 83 7e 20 00       	cmpq   $0x0,0x20(%r14)
  405d6f:	0f 84 a3 f7 ff ff    	je     405518 <effective_report+0x228>
  405d75:	e9 10 03 00 00       	jmpq   40608a <effective_report+0xd9a>
  405d7a:	66 0f 1f 44 00 00    	nopw   0x0(%rax,%rax,1)
  405d80:	4c 8b 64 24 38       	mov    0x38(%rsp),%r12
  405d85:	49 ff c4             	inc    %r12
  405d88:	4c 89 f8             	mov    %r15,%rax
  405d8b:	48 c1 e0 04          	shl    $0x4,%rax
  405d8f:	48 8b b4 04 e8 00 00 	mov    0xe8(%rsp,%rax,1),%rsi
  405d96:	00 
  405d97:	48 8d ac 24 e0 08 00 	lea    0x8e0(%rsp),%rbp
  405d9e:	00 
  405d9f:	48 bb c0 3e 40 00 00 	movabs $0x403ec0,%rbx
  405da6:	00 00 00 
  405da9:	c7 84 24 e0 08 00 00 	movl   $0x0,0x8e0(%rsp)
  405db0:	00 00 00 00 
  405db4:	c6 84 24 e4 08 00 00 	movb   $0x0,0x8e4(%rsp)
  405dbb:	00 
  405dbc:	ba 01 00 00 00       	mov    $0x1,%edx
  405dc1:	b9 01 00 00 00       	mov    $0x1,%ecx
  405dc6:	41 b8 01 00 00 00    	mov    $0x1,%r8d
  405dcc:	48 89 ef             	mov    %rbp,%rdi
  405dcf:	48 b8 d0 6b 40 00 00 	movabs $0x406bd0,%rax
  405dd6:	00 00 00 
  405dd9:	ff d0                	callq  *%rax
  405ddb:	31 f6                	xor    %esi,%esi
  405ddd:	48 89 ef             	mov    %rbp,%rdi
  405de0:	48 b8 30 71 40 00 00 	movabs $0x407130,%rax
  405de7:	00 00 00 
  405dea:	ff d0                	callq  *%rax
  405dec:	4c 89 64 24 38       	mov    %r12,0x38(%rsp)
  405df1:	4d 85 e4             	test   %r12,%r12
  405df4:	0f 84 db 00 00 00    	je     405ed5 <effective_report+0xbe5>
  405dfa:	48 bd 00 02 41 00 00 	movabs $0x410200,%rbp
  405e01:	00 00 00 
  405e04:	48 8b 75 00          	mov    0x0(%rbp),%rsi
  405e08:	bf 20 00 00 00       	mov    $0x20,%edi
  405e0d:	ff d3                	callq  *%rbx
  405e0f:	48 8b 75 00          	mov    0x0(%rbp),%rsi
  405e13:	bf 20 00 00 00       	mov    $0x20,%edi
  405e18:	ff d3                	callq  *%rbx
  405e1a:	48 8b 75 00          	mov    0x0(%rbp),%rsi
  405e1e:	bf 20 00 00 00       	mov    $0x20,%edi
  405e23:	ff d3                	callq  *%rbx
  405e25:	48 8b 75 00          	mov    0x0(%rbp),%rsi
  405e29:	bf 20 00 00 00       	mov    $0x20,%edi
  405e2e:	ff d3                	callq  *%rbx
  405e30:	48 8b 75 00          	mov    0x0(%rbp),%rsi
  405e34:	bf 20 00 00 00       	mov    $0x20,%edi
  405e39:	ff d3                	callq  *%rbx
  405e3b:	48 8b 75 00          	mov    0x0(%rbp),%rsi
  405e3f:	bf 20 00 00 00       	mov    $0x20,%edi
  405e44:	ff d3                	callq  *%rbx
  405e46:	48 8b 75 00          	mov    0x0(%rbp),%rsi
  405e4a:	bf 20 00 00 00       	mov    $0x20,%edi
  405e4f:	ff d3                	callq  *%rbx
  405e51:	48 8b 75 00          	mov    0x0(%rbp),%rsi
  405e55:	bf 20 00 00 00       	mov    $0x20,%edi
  405e5a:	ff d3                	callq  *%rbx
  405e5c:	48 8b 75 00          	mov    0x0(%rbp),%rsi
  405e60:	bf 20 00 00 00       	mov    $0x20,%edi
  405e65:	ff d3                	callq  *%rbx
  405e67:	48 8b 75 00          	mov    0x0(%rbp),%rsi
  405e6b:	bf 20 00 00 00       	mov    $0x20,%edi
  405e70:	ff d3                	callq  *%rbx
  405e72:	48 8b 75 00          	mov    0x0(%rbp),%rsi
  405e76:	bf 20 00 00 00       	mov    $0x20,%edi
  405e7b:	ff d3                	callq  *%rbx
  405e7d:	48 8b 75 00          	mov    0x0(%rbp),%rsi
  405e81:	bf 20 00 00 00       	mov    $0x20,%edi
  405e86:	ff d3                	callq  *%rbx
  405e88:	48 8b 75 00          	mov    0x0(%rbp),%rsi
  405e8c:	bf 20 00 00 00       	mov    $0x20,%edi
  405e91:	ff d3                	callq  *%rbx
  405e93:	48 8b 75 00          	mov    0x0(%rbp),%rsi
  405e97:	bf 20 00 00 00       	mov    $0x20,%edi
  405e9c:	ff d3                	callq  *%rbx
  405e9e:	48 8b 75 00          	mov    0x0(%rbp),%rsi
  405ea2:	bf 20 00 00 00       	mov    $0x20,%edi
  405ea7:	ff d3                	callq  *%rbx
  405ea9:	48 8b 75 00          	mov    0x0(%rbp),%rsi
  405ead:	bf 20 00 00 00       	mov    $0x20,%edi
  405eb2:	ff d3                	callq  *%rbx
  405eb4:	48 8b 75 00          	mov    0x0(%rbp),%rsi
  405eb8:	bf 20 00 00 00       	mov    $0x20,%edi
  405ebd:	ff d3                	callq  *%rbx
  405ebf:	48 8b 75 00          	mov    0x0(%rbp),%rsi
  405ec3:	bf 20 00 00 00       	mov    $0x20,%edi
  405ec8:	ff d3                	callq  *%rbx
  405eca:	48 8b 75 00          	mov    0x0(%rbp),%rsi
  405ece:	bf 20 00 00 00       	mov    $0x20,%edi
  405ed3:	ff d3                	callq  *%rbx
  405ed5:	49 c1 e7 04          	shl    $0x4,%r15
  405ed9:	4e 8b a4 3c e0 00 00 	mov    0xe0(%rsp,%r15,1),%r12
  405ee0:	00 
  405ee1:	48 b8 00 00 00 00 00 	movabs $0xff0000000000,%rax
  405ee8:	ff 00 00 
  405eeb:	49 85 c4             	test   %rax,%r12
  405eee:	49 bd 00 02 41 00 00 	movabs $0x410200,%r13
  405ef5:	00 00 00 
  405ef8:	74 29                	je     405f23 <effective_report+0xc33>
  405efa:	4c 89 e0             	mov    %r12,%rax
  405efd:	48 c1 e8 28          	shr    $0x28,%rax
  405f01:	0f b6 e8             	movzbl %al,%ebp
  405f04:	45 31 ff             	xor    %r15d,%r15d
  405f07:	66 0f 1f 84 00 00 00 	nopw   0x0(%rax,%rax,1)
  405f0e:	00 00 
  405f10:	49 8b 75 00          	mov    0x0(%r13),%rsi
  405f14:	bf 3e 00 00 00       	mov    $0x3e,%edi
  405f19:	ff d3                	callq  *%rbx
  405f1b:	49 ff c7             	inc    %r15
  405f1e:	49 39 ef             	cmp    %rbp,%r15
  405f21:	72 ed                	jb     405f10 <effective_report+0xc20>
  405f23:	48 8b 6c 24 08       	mov    0x8(%rsp),%rbp
  405f28:	4c 39 f5             	cmp    %r14,%rbp
  405f2b:	49 8b 7d 00          	mov    0x0(%r13),%rdi
  405f2f:	7e 68                	jle    405f99 <effective_report+0xca9>
  405f31:	48 b8 ff ff ff ff ff 	movabs $0xffffffffff,%rax
  405f38:	00 00 00 
  405f3b:	49 21 c4             	and    %rax,%r12
  405f3e:	48 8b 5c 24 30       	mov    0x30(%rsp),%rbx
  405f43:	4d 8d 04 1c          	lea    (%r12,%rbx,1),%r8
  405f47:	31 c0                	xor    %eax,%eax
  405f49:	48 be 3a a9 40 00 00 	movabs $0x40a93a,%rsi
  405f50:	00 00 00 
  405f53:	48 8d 94 24 e5 08 00 	lea    0x8e5(%rsp),%rdx
  405f5a:	00 
  405f5b:	4c 89 e1             	mov    %r12,%rcx
  405f5e:	48 bd 30 40 40 00 00 	movabs $0x404030,%rbp
  405f65:	00 00 00 
  405f68:	ff d5                	callq  *%rbp
  405f6a:	48 8b 6c 24 08       	mov    0x8(%rsp),%rbp
  405f6f:	48 8d bc 24 d8 00 00 	lea    0xd8(%rsp),%rdi
  405f76:	00 
  405f77:	48 89 de             	mov    %rbx,%rsi
  405f7a:	48 b8 b0 72 40 00 00 	movabs $0x4072b0,%rax
  405f81:	00 00 00 
  405f84:	ff d0                	callq  *%rax
  405f86:	4c 8b bc 24 d8 00 00 	mov    0xd8(%rsp),%r15
  405f8d:	00 
  405f8e:	4d 85 ff             	test   %r15,%r15
  405f91:	0f 89 e9 fd ff ff    	jns    405d80 <effective_report+0xa90>
  405f97:	eb 20                	jmp    405fb9 <effective_report+0xcc9>
  405f99:	31 c0                	xor    %eax,%eax
  405f9b:	48 be 2e a9 40 00 00 	movabs $0x40a92e,%rsi
  405fa2:	00 00 00 
  405fa5:	48 8d 94 24 e5 08 00 	lea    0x8e5(%rsp),%rdx
  405fac:	00 
  405fad:	48 b9 30 40 40 00 00 	movabs $0x404030,%rcx
  405fb4:	00 00 00 
  405fb7:	ff d1                	callq  *%rcx
  405fb9:	48 89 ea             	mov    %rbp,%rdx
  405fbc:	4c 29 f2             	sub    %r14,%rdx
  405fbf:	48 bb 00 02 41 00 00 	movabs $0x410200,%rbx
  405fc6:	00 00 00 
  405fc9:	48 8b 0b             	mov    (%rbx),%rcx
  405fcc:	7e 26                	jle    405ff4 <effective_report+0xd04>
  405fce:	31 c0                	xor    %eax,%eax
  405fd0:	48 89 cf             	mov    %rcx,%rdi
  405fd3:	48 be 11 a8 40 00 00 	movabs $0x40a811,%rsi
  405fda:	00 00 00 
  405fdd:	4d 89 f7             	mov    %r14,%r15
  405fe0:	4c 89 f1             	mov    %r14,%rcx
  405fe3:	49 89 e8             	mov    %rbp,%r8
  405fe6:	48 bd 30 40 40 00 00 	movabs $0x404030,%rbp
  405fed:	00 00 00 
  405ff0:	ff d5                	callq  *%rbp
  405ff2:	eb 23                	jmp    406017 <effective_report+0xd27>
  405ff4:	4d 89 f7             	mov    %r14,%r15
  405ff7:	be 1b 00 00 00       	mov    $0x1b,%esi
  405ffc:	ba 01 00 00 00       	mov    $0x1,%edx
  406001:	48 bf f5 a7 40 00 00 	movabs $0x40a7f5,%rdi
  406008:	00 00 00 
  40600b:	48 b8 20 41 40 00 00 	movabs $0x404120,%rax
  406012:	00 00 00 
  406015:	ff d0                	callq  *%rax
  406017:	4c 8b 34 24          	mov    (%rsp),%r14
  40601b:	48 8b 44 24 20       	mov    0x20(%rsp),%rax
  406020:	4c 8b 40 20          	mov    0x20(%rax),%r8
  406024:	4c 8b 48 28          	mov    0x28(%rax),%r9
  406028:	48 8b 3b             	mov    (%rbx),%rdi
  40602b:	4d 85 c9             	test   %r9,%r9
  40602e:	75 28                	jne    406058 <effective_report+0xd68>
  406030:	31 c0                	xor    %eax,%eax
  406032:	48 be 37 a8 40 00 00 	movabs $0x40a837,%rsi
  406039:	00 00 00 
  40603c:	4c 89 c2             	mov    %r8,%rdx
  40603f:	48 b9 30 40 40 00 00 	movabs $0x404030,%rcx
  406046:	00 00 00 
  406049:	ff d1                	callq  *%rcx
  40604b:	49 83 7e 20 00       	cmpq   $0x0,0x20(%r14)
  406050:	0f 84 c2 f4 ff ff    	je     405518 <effective_report+0x228>
  406056:	eb 32                	jmp    40608a <effective_report+0xd9a>
  406058:	4d 01 c1             	add    %r8,%r9
  40605b:	4c 89 c2             	mov    %r8,%rdx
  40605e:	4c 29 fa             	sub    %r15,%rdx
  406061:	4c 89 c9             	mov    %r9,%rcx
  406064:	4c 29 f9             	sub    %r15,%rcx
  406067:	31 c0                	xor    %eax,%eax
  406069:	48 be 5a a8 40 00 00 	movabs $0x40a85a,%rsi
  406070:	00 00 00 
  406073:	48 bd 30 40 40 00 00 	movabs $0x404030,%rbp
  40607a:	00 00 00 
  40607d:	ff d5                	callq  *%rbp
  40607f:	49 83 7e 20 00       	cmpq   $0x0,0x20(%r14)
  406084:	0f 84 8e f4 ff ff    	je     405518 <effective_report+0x228>
  40608a:	48 8b 0b             	mov    (%rbx),%rcx
  40608d:	be 13 00 00 00       	mov    $0x13,%esi
  406092:	ba 01 00 00 00       	mov    $0x1,%edx
  406097:	48 bf 82 a8 40 00 00 	movabs $0x40a882,%rdi
  40609e:	00 00 00 
  4060a1:	48 b8 20 41 40 00 00 	movabs $0x404120,%rax
  4060a8:	00 00 00 
  4060ab:	ff d0                	callq  *%rax
  4060ad:	41 83 7e 1c 00       	cmpl   $0x0,0x1c(%r14)
  4060b2:	0f 8e 60 f4 ff ff    	jle    405518 <effective_report+0x228>
  4060b8:	45 31 ff             	xor    %r15d,%r15d
  4060bb:	eb 33                	jmp    4060f0 <effective_report+0xe00>
  4060bd:	48 8b 0b             	mov    (%rbx),%rcx
  4060c0:	be 13 00 00 00       	mov    $0x13,%esi
  4060c5:	ba 01 00 00 00       	mov    $0x1,%edx
  4060ca:	48 bf 96 a8 40 00 00 	movabs $0x40a896,%rdi
  4060d1:	00 00 00 
  4060d4:	48 b8 20 41 40 00 00 	movabs $0x404120,%rax
  4060db:	00 00 00 
  4060de:	ff d0                	callq  *%rax
  4060e0:	48 8b 04 24          	mov    (%rsp),%rax
  4060e4:	8b 40 1c             	mov    0x1c(%rax),%eax
  4060e7:	e9 a1 00 00 00       	jmpq   40618d <effective_report+0xe9d>
  4060ec:	0f 1f 40 00          	nopl   0x0(%rax)
  4060f0:	48 8b 03             	mov    (%rbx),%rax
  4060f3:	48 89 44 24 08       	mov    %rax,0x8(%rsp)
  4060f8:	bf 02 00 00 00       	mov    $0x2,%edi
  4060fd:	49 be e0 40 40 00 00 	movabs $0x4040e0,%r14
  406104:	00 00 00 
  406107:	41 ff d6             	callq  *%r14
  40610a:	85 c0                	test   %eax,%eax
  40610c:	49 bd 92 b1 40 00 00 	movabs $0x40b192,%r13
  406113:	00 00 00 
  406116:	4c 89 ed             	mov    %r13,%rbp
  406119:	48 b8 68 a9 40 00 00 	movabs $0x40a968,%rax
  406120:	00 00 00 
  406123:	48 0f 45 e8          	cmovne %rax,%rbp
  406127:	4c 8b 24 24          	mov    (%rsp),%r12
  40612b:	49 8b 44 24 20       	mov    0x20(%r12),%rax
  406130:	4a 8b 1c f8          	mov    (%rax,%r15,8),%rbx
  406134:	bf 02 00 00 00       	mov    $0x2,%edi
  406139:	41 ff d6             	callq  *%r14
  40613c:	85 c0                	test   %eax,%eax
  40613e:	48 b8 4b a9 40 00 00 	movabs $0x40a94b,%rax
  406145:	00 00 00 
  406148:	4c 0f 45 e8          	cmovne %rax,%r13
  40614c:	31 c0                	xor    %eax,%eax
  40614e:	48 8b 7c 24 08       	mov    0x8(%rsp),%rdi
  406153:	48 be 1f a7 40 00 00 	movabs $0x40a71f,%rsi
  40615a:	00 00 00 
  40615d:	48 89 ea             	mov    %rbp,%rdx
  406160:	48 89 d9             	mov    %rbx,%rcx
  406163:	48 bb 00 02 41 00 00 	movabs $0x410200,%rbx
  40616a:	00 00 00 
  40616d:	4d 89 e8             	mov    %r13,%r8
  406170:	48 bd 30 40 40 00 00 	movabs $0x404030,%rbp
  406177:	00 00 00 
  40617a:	ff d5                	callq  *%rbp
  40617c:	49 ff c7             	inc    %r15
  40617f:	49 63 44 24 1c       	movslq 0x1c(%r12),%rax
  406184:	49 39 c7             	cmp    %rax,%r15
  406187:	0f 8c 30 ff ff ff    	jl     4060bd <effective_report+0xdcd>
  40618d:	48 63 c8             	movslq %eax,%rcx
  406190:	49 39 cf             	cmp    %rcx,%r15
  406193:	0f 8c 57 ff ff ff    	jl     4060f0 <effective_report+0xe00>
  406199:	e9 e6 f2 ff ff       	jmpq   405484 <effective_report+0x194>
  40619e:	66 90                	xchg   %ax,%ax
  4061a0:	48 8b 4c 24 40       	mov    0x40(%rsp),%rcx
  4061a5:	8d 49 01             	lea    0x1(%rcx),%ecx
  4061a8:	48 b8 60 02 41 00 00 	movabs $0x410260,%rax
  4061af:	00 00 00 
  4061b2:	48 3b 08             	cmp    (%rax),%rcx
  4061b5:	0f 82 a5 f2 ff ff    	jb     405460 <effective_report+0x170>
  4061bb:	48 bb 00 02 41 00 00 	movabs $0x410200,%rbx
  4061c2:	00 00 00 
  4061c5:	48 8b 0b             	mov    (%rbx),%rcx
  4061c8:	48 bf 7c a3 40 00 00 	movabs $0x40a37c,%rdi
  4061cf:	00 00 00 
  4061d2:	49 be 20 41 40 00 00 	movabs $0x404120,%r14
  4061d9:	00 00 00 
  4061dc:	be 33 00 00 00       	mov    $0x33,%esi
  4061e1:	ba 01 00 00 00       	mov    $0x1,%edx
  4061e6:	41 ff d6             	callq  *%r14
  4061e9:	48 bf b0 a3 40 00 00 	movabs $0x40a3b0,%rdi
  4061f0:	00 00 00 
  4061f3:	48 b8 70 3f 40 00 00 	movabs $0x403f70,%rax
  4061fa:	00 00 00 
  4061fd:	48 8d b4 24 e0 08 00 	lea    0x8e0(%rsp),%rsi
  406204:	00 
  406205:	ba ff 1f 00 00       	mov    $0x1fff,%edx
  40620a:	ff d0                	callq  *%rax
  40620c:	48 8d 48 ff          	lea    -0x1(%rax),%rcx
  406210:	48 81 f9 fd 1f 00 00 	cmp    $0x1ffd,%rcx
  406217:	77 2b                	ja     406244 <effective_report+0xf54>
  406219:	c6 84 04 e0 08 00 00 	movb   $0x0,0x8e0(%rsp,%rax,1)
  406220:	00 
  406221:	48 8b 3b             	mov    (%rbx),%rdi
  406224:	48 be bf a3 40 00 00 	movabs $0x40a3bf,%rsi
  40622b:	00 00 00 
  40622e:	48 b9 30 40 40 00 00 	movabs $0x404030,%rcx
  406235:	00 00 00 
  406238:	48 8d 94 24 e0 08 00 	lea    0x8e0(%rsp),%rdx
  40623f:	00 
  406240:	31 c0                	xor    %eax,%eax
  406242:	ff d1                	callq  *%rcx
  406244:	48 8b 3b             	mov    (%rbx),%rdi
  406247:	48 b8 38 02 41 00 00 	movabs $0x410238,%rax
  40624e:	00 00 00 
  406251:	48 8b 10             	mov    (%rax),%rdx
  406254:	48 be d4 a3 40 00 00 	movabs $0x40a3d4,%rsi
  40625b:	00 00 00 
  40625e:	48 bd 30 40 40 00 00 	movabs $0x404030,%rbp
  406265:	00 00 00 
  406268:	31 c0                	xor    %eax,%eax
  40626a:	ff d5                	callq  *%rbp
  40626c:	48 8b 3b             	mov    (%rbx),%rdi
  40626f:	48 b8 40 02 41 00 00 	movabs $0x410240,%rax
  406276:	00 00 00 
  406279:	48 8b 10             	mov    (%rax),%rdx
  40627c:	48 be ea a3 40 00 00 	movabs $0x40a3ea,%rsi
  406283:	00 00 00 
  406286:	31 c0                	xor    %eax,%eax
  406288:	ff d5                	callq  *%rbp
  40628a:	80 7c 24 28 00       	cmpb   $0x0,0x28(%rsp)
  40628f:	75 3b                	jne    4062cc <effective_report+0xfdc>
  406291:	48 8b 0b             	mov    (%rbx),%rcx
  406294:	48 bf 7c a3 40 00 00 	movabs $0x40a37c,%rdi
  40629b:	00 00 00 
  40629e:	be 33 00 00 00       	mov    $0x33,%esi
  4062a3:	ba 01 00 00 00       	mov    $0x1,%edx
  4062a8:	41 ff d6             	callq  *%r14
  4062ab:	48 8b 3b             	mov    (%rbx),%rdi
  4062ae:	48 b8 80 3f 40 00 00 	movabs $0x403f80,%rax
  4062b5:	00 00 00 
  4062b8:	ff d0                	callq  *%rax
  4062ba:	48 81 c4 e8 28 00 00 	add    $0x28e8,%rsp
  4062c1:	5b                   	pop    %rbx
  4062c2:	41 5c                	pop    %r12
  4062c4:	41 5d                	pop    %r13
  4062c6:	41 5e                	pop    %r14
  4062c8:	41 5f                	pop    %r15
  4062ca:	5d                   	pop    %rbp
  4062cb:	c3                   	retq   
  4062cc:	48 8b 3b             	mov    (%rbx),%rdi
  4062cf:	48 be 00 a4 40 00 00 	movabs $0x40a400,%rsi
  4062d6:	00 00 00 
  4062d9:	31 c0                	xor    %eax,%eax
  4062db:	48 8b 54 24 18       	mov    0x18(%rsp),%rdx
  4062e0:	ff d5                	callq  *%rbp
  4062e2:	48 8b 3b             	mov    (%rbx),%rdi
  4062e5:	48 be 16 a4 40 00 00 	movabs $0x40a416,%rsi
  4062ec:	00 00 00 
  4062ef:	31 c0                	xor    %eax,%eax
  4062f1:	48 8b 54 24 10       	mov    0x10(%rsp),%rdx
  4062f6:	ff d5                	callq  *%rbp
  4062f8:	eb 97                	jmp    406291 <effective_report+0xfa1>
  4062fa:	66 0f 1f 44 00 00    	nopw   0x0(%rax,%rax,1)

0000000000406300 <effective_print_banner>:
  406300:	41 56                	push   %r14
  406302:	53                   	push   %rbx
  406303:	50                   	push   %rax
  406304:	48 bb 00 02 41 00 00 	movabs $0x410200,%rbx
  40630b:	00 00 00 
  40630e:	48 8b 0b             	mov    (%rbx),%rcx
  406311:	48 bf 5b a5 40 00 00 	movabs $0x40a55b,%rdi
  406318:	00 00 00 
  40631b:	49 be 20 41 40 00 00 	movabs $0x404120,%r14
  406322:	00 00 00 
  406325:	be 2d 00 00 00       	mov    $0x2d,%esi
  40632a:	ba 01 00 00 00       	mov    $0x1,%edx
  40632f:	41 ff d6             	callq  *%r14
  406332:	48 8b 0b             	mov    (%rbx),%rcx
  406335:	48 bf 89 a5 40 00 00 	movabs $0x40a589,%rdi
  40633c:	00 00 00 
  40633f:	be 39 00 00 00       	mov    $0x39,%esi
  406344:	ba 01 00 00 00       	mov    $0x1,%edx
  406349:	41 ff d6             	callq  *%r14
  40634c:	48 8b 0b             	mov    (%rbx),%rcx
  40634f:	48 bf c3 a5 40 00 00 	movabs $0x40a5c3,%rdi
  406356:	00 00 00 
  406359:	be 3a 00 00 00       	mov    $0x3a,%esi
  40635e:	ba 01 00 00 00       	mov    $0x1,%edx
  406363:	41 ff d6             	callq  *%r14
  406366:	48 8b 0b             	mov    (%rbx),%rcx
  406369:	48 bf fe a5 40 00 00 	movabs $0x40a5fe,%rdi
  406370:	00 00 00 
  406373:	be 3b 00 00 00       	mov    $0x3b,%esi
  406378:	ba 01 00 00 00       	mov    $0x1,%edx
  40637d:	41 ff d6             	callq  *%r14
  406380:	48 8b 0b             	mov    (%rbx),%rcx
  406383:	48 bf 3a a6 40 00 00 	movabs $0x40a63a,%rdi
  40638a:	00 00 00 
  40638d:	be 3b 00 00 00       	mov    $0x3b,%esi
  406392:	ba 01 00 00 00       	mov    $0x1,%edx
  406397:	41 ff d6             	callq  *%r14
  40639a:	48 8b 33             	mov    (%rbx),%rsi
  40639d:	48 b8 d0 3f 40 00 00 	movabs $0x403fd0,%rax
  4063a4:	00 00 00 
  4063a7:	bf 0a 00 00 00       	mov    $0xa,%edi
  4063ac:	48 83 c4 08          	add    $0x8,%rsp
  4063b0:	5b                   	pop    %rbx
  4063b1:	41 5e                	pop    %r14
  4063b3:	ff e0                	jmpq   *%rax
  4063b5:	66 2e 0f 1f 84 00 00 	nopw   %cs:0x0(%rax,%rax,1)
  4063bc:	00 00 00 
  4063bf:	90                   	nop

00000000004063c0 <effective_log_init>:
  4063c0:	53                   	push   %rbx
  4063c1:	48 81 ec 40 01 00 00 	sub    $0x140,%rsp
  4063c8:	0f 57 c0             	xorps  %xmm0,%xmm0
  4063cb:	0f 11 84 24 98 00 00 	movups %xmm0,0x98(%rsp)
  4063d2:	00 
  4063d3:	0f 11 84 24 88 00 00 	movups %xmm0,0x88(%rsp)
  4063da:	00 
  4063db:	0f 11 44 24 78       	movups %xmm0,0x78(%rsp)
  4063e0:	0f 11 44 24 68       	movups %xmm0,0x68(%rsp)
  4063e5:	0f 11 44 24 58       	movups %xmm0,0x58(%rsp)
  4063ea:	0f 11 44 24 48       	movups %xmm0,0x48(%rsp)
  4063ef:	0f 11 44 24 38       	movups %xmm0,0x38(%rsp)
  4063f4:	0f 11 44 24 28       	movups %xmm0,0x28(%rsp)
  4063f9:	0f 11 44 24 18       	movups %xmm0,0x18(%rsp)
  4063fe:	48 b8 f0 65 40 00 00 	movabs $0x4065f0,%rax
  406405:	00 00 00 
  406408:	48 89 44 24 10       	mov    %rax,0x10(%rsp)
  40640d:	48 b8 e0 3f 40 00 00 	movabs $0x403fe0,%rax
  406414:	00 00 00 
  406417:	48 8d 74 24 10       	lea    0x10(%rsp),%rsi
  40641c:	48 8d 94 24 a8 00 00 	lea    0xa8(%rsp),%rdx
  406423:	00 
  406424:	bf 0b 00 00 00       	mov    $0xb,%edi
  406429:	ff d0                	callq  *%rax
  40642b:	48 8b 84 24 a8 00 00 	mov    0xa8(%rsp),%rax
  406432:	00 
  406433:	48 b9 70 02 41 00 00 	movabs $0x410270,%rcx
  40643a:	00 00 00 
  40643d:	48 89 01             	mov    %rax,(%rcx)
  406440:	48 bf 2c a4 40 00 00 	movabs $0x40a42c,%rdi
  406447:	00 00 00 
  40644a:	48 bb c0 3f 40 00 00 	movabs $0x403fc0,%rbx
  406451:	00 00 00 
  406454:	ff d3                	callq  *%rbx
  406456:	48 85 c0             	test   %rax,%rax
  406459:	74 0d                	je     406468 <effective_log_init+0xa8>
  40645b:	48 b8 78 02 41 00 00 	movabs $0x410278,%rax
  406462:	00 00 00 
  406465:	c6 00 01             	movb   $0x1,(%rax)
  406468:	48 bf 8f a4 40 00 00 	movabs $0x40a48f,%rdi
  40646f:	00 00 00 
  406472:	ff d3                	callq  *%rbx
  406474:	48 85 c0             	test   %rax,%rax
  406477:	74 0d                	je     406486 <effective_log_init+0xc6>
  406479:	48 b8 58 02 41 00 00 	movabs $0x410258,%rax
  406480:	00 00 00 
  406483:	c6 00 01             	movb   $0x1,(%rax)
  406486:	48 bf 3e a4 40 00 00 	movabs $0x40a43e,%rdi
  40648d:	00 00 00 
  406490:	ff d3                	callq  *%rbx
  406492:	48 85 c0             	test   %rax,%rax
  406495:	74 0d                	je     4064a4 <effective_log_init+0xe4>
  406497:	48 b8 79 02 41 00 00 	movabs $0x410279,%rax
  40649e:	00 00 00 
  4064a1:	c6 00 01             	movb   $0x1,(%rax)
  4064a4:	48 bf 57 a4 40 00 00 	movabs $0x40a457,%rdi
  4064ab:	00 00 00 
  4064ae:	ff d3                	callq  *%rbx
  4064b0:	48 89 c1             	mov    %rax,%rcx
  4064b3:	48 85 c9             	test   %rcx,%rcx
  4064b6:	74 4b                	je     406503 <effective_log_init+0x143>
  4064b8:	48 be 47 b2 40 00 00 	movabs $0x40b247,%rsi
  4064bf:	00 00 00 
  4064c2:	49 b8 e0 3e 40 00 00 	movabs $0x403ee0,%r8
  4064c9:	00 00 00 
  4064cc:	48 8d 54 24 08       	lea    0x8(%rsp),%rdx
  4064d1:	31 c0                	xor    %eax,%eax
  4064d3:	48 89 cf             	mov    %rcx,%rdi
  4064d6:	41 ff d0             	callq  *%r8
  4064d9:	83 f8 01             	cmp    $0x1,%eax
  4064dc:	75 25                	jne    406503 <effective_log_init+0x143>
  4064de:	48 b8 58 02 41 00 00 	movabs $0x410258,%rax
  4064e5:	00 00 00 
  4064e8:	80 38 01             	cmpb   $0x1,(%rax)
  4064eb:	0f 84 dd 00 00 00    	je     4065ce <effective_log_init+0x20e>
  4064f1:	48 8b 44 24 08       	mov    0x8(%rsp),%rax
  4064f6:	48 b9 d8 01 41 00 00 	movabs $0x4101d8,%rcx
  4064fd:	00 00 00 
  406500:	48 89 01             	mov    %rax,(%rcx)
  406503:	48 bf 9f a4 40 00 00 	movabs $0x40a49f,%rdi
  40650a:	00 00 00 
  40650d:	ff d3                	callq  *%rbx
  40650f:	48 89 c1             	mov    %rax,%rcx
  406512:	48 85 c9             	test   %rcx,%rcx
  406515:	0f 84 8f 00 00 00    	je     4065aa <effective_log_init+0x1ea>
  40651b:	0f be 01             	movsbl (%rcx),%eax
  40651e:	83 c0 d0             	add    $0xffffffd0,%eax
  406521:	83 f8 09             	cmp    $0x9,%eax
  406524:	0f 87 89 00 00 00    	ja     4065b3 <effective_log_init+0x1f3>
  40652a:	48 ba 40 a3 40 00 00 	movabs $0x40a340,%rdx
  406531:	00 00 00 
  406534:	48 63 04 82          	movslq (%rdx,%rax,4),%rax
  406538:	48 01 d0             	add    %rdx,%rax
  40653b:	ff e0                	jmpq   *%rax
  40653d:	48 b8 90 67 40 00 00 	movabs $0x406790,%rax
  406544:	00 00 00 
  406547:	48 ba c8 01 41 00 00 	movabs $0x4101c8,%rdx
  40654e:	00 00 00 
  406551:	eb 4e                	jmp    4065a1 <effective_log_init+0x1e1>
  406553:	48 b8 a0 67 40 00 00 	movabs $0x4067a0,%rax
  40655a:	00 00 00 
  40655d:	48 ba c8 01 41 00 00 	movabs $0x4101c8,%rdx
  406564:	00 00 00 
  406567:	48 89 02             	mov    %rax,(%rdx)
  40656a:	48 b8 b0 67 40 00 00 	movabs $0x4067b0,%rax
  406571:	00 00 00 
  406574:	eb 21                	jmp    406597 <effective_log_init+0x1d7>
  406576:	48 b8 00 68 40 00 00 	movabs $0x406800,%rax
  40657d:	00 00 00 
  406580:	48 ba c8 01 41 00 00 	movabs $0x4101c8,%rdx
  406587:	00 00 00 
  40658a:	48 89 02             	mov    %rax,(%rdx)
  40658d:	48 b8 40 68 40 00 00 	movabs $0x406840,%rax
  406594:	00 00 00 
  406597:	48 ba d0 01 41 00 00 	movabs $0x4101d0,%rdx
  40659e:	00 00 00 
  4065a1:	48 89 02             	mov    %rax,(%rdx)
  4065a4:	80 79 01 00          	cmpb   $0x0,0x1(%rcx)
  4065a8:	75 09                	jne    4065b3 <effective_log_init+0x1f3>
  4065aa:	48 81 c4 40 01 00 00 	add    $0x140,%rsp
  4065b1:	5b                   	pop    %rbx
  4065b2:	c3                   	retq   
  4065b3:	48 bf b3 a4 40 00 00 	movabs $0x40a4b3,%rdi
  4065ba:	00 00 00 
  4065bd:	48 ba 60 66 40 00 00 	movabs $0x406660,%rdx
  4065c4:	00 00 00 
  4065c7:	31 c0                	xor    %eax,%eax
  4065c9:	48 89 ce             	mov    %rcx,%rsi
  4065cc:	ff d2                	callq  *%rdx
  4065ce:	48 bf 69 a4 40 00 00 	movabs $0x40a469,%rdi
  4065d5:	00 00 00 
  4065d8:	48 b9 60 66 40 00 00 	movabs $0x406660,%rcx
  4065df:	00 00 00 
  4065e2:	31 c0                	xor    %eax,%eax
  4065e4:	ff d1                	callq  *%rcx
  4065e6:	66 2e 0f 1f 84 00 00 	nopw   %cs:0x0(%rax,%rax,1)
  4065ed:	00 00 00 

00000000004065f0 <effective_segv_handler>:
  4065f0:	55                   	push   %rbp
  4065f1:	41 57                	push   %r15
  4065f3:	41 56                	push   %r14
  4065f5:	41 54                	push   %r12
  4065f7:	53                   	push   %rbx
  4065f8:	49 89 d6             	mov    %rdx,%r14
  4065fb:	49 89 f7             	mov    %rsi,%r15
  4065fe:	89 fd                	mov    %edi,%ebp
  406600:	48 bb b0 02 41 00 00 	movabs $0x4102b0,%rbx
  406607:	00 00 00 
  40660a:	80 3b 01             	cmpb   $0x1,(%rbx)
  40660d:	75 1a                	jne    406629 <effective_segv_handler+0x39>
  40660f:	49 bc 40 3f 40 00 00 	movabs $0x403f40,%r12
  406616:	00 00 00 
  406619:	bf 0f 00 00 00       	mov    $0xf,%edi
  40661e:	41 ff d4             	callq  *%r12
  406621:	bf 09 00 00 00       	mov    $0x9,%edi
  406626:	41 ff d4             	callq  *%r12
  406629:	c6 03 01             	movb   $0x1,(%rbx)
  40662c:	48 b8 70 02 41 00 00 	movabs $0x410270,%rax
  406633:	00 00 00 
  406636:	48 8b 00             	mov    (%rax),%rax
  406639:	48 85 c0             	test   %rax,%rax
  40663c:	74 0a                	je     406648 <effective_segv_handler+0x58>
  40663e:	89 ef                	mov    %ebp,%edi
  406640:	4c 89 fe             	mov    %r15,%rsi
  406643:	4c 89 f2             	mov    %r14,%rdx
  406646:	ff d0                	callq  *%rax
  406648:	48 b8 f0 52 40 00 00 	movabs $0x4052f0,%rax
  40664f:	00 00 00 
  406652:	ff d0                	callq  *%rax
  406654:	48 b8 80 3e 40 00 00 	movabs $0x403e80,%rax
  40665b:	00 00 00 
  40665e:	ff d0                	callq  *%rax

0000000000406660 <effective_error>:
  406660:	41 57                	push   %r15
  406662:	41 56                	push   %r14
  406664:	41 55                	push   %r13
  406666:	41 54                	push   %r12
  406668:	53                   	push   %rbx
  406669:	48 81 ec d0 00 00 00 	sub    $0xd0,%rsp
  406670:	49 89 fe             	mov    %rdi,%r14
  406673:	84 c0                	test   %al,%al
  406675:	74 37                	je     4066ae <effective_error+0x4e>
  406677:	0f 29 44 24 50       	movaps %xmm0,0x50(%rsp)
  40667c:	0f 29 4c 24 60       	movaps %xmm1,0x60(%rsp)
  406681:	0f 29 54 24 70       	movaps %xmm2,0x70(%rsp)
  406686:	0f 29 9c 24 80 00 00 	movaps %xmm3,0x80(%rsp)
  40668d:	00 
  40668e:	0f 29 a4 24 90 00 00 	movaps %xmm4,0x90(%rsp)
  406695:	00 
  406696:	0f 29 ac 24 a0 00 00 	movaps %xmm5,0xa0(%rsp)
  40669d:	00 
  40669e:	0f 29 b4 24 b0 00 00 	movaps %xmm6,0xb0(%rsp)
  4066a5:	00 
  4066a6:	0f 29 bc 24 c0 00 00 	movaps %xmm7,0xc0(%rsp)
  4066ad:	00 
  4066ae:	4c 89 4c 24 48       	mov    %r9,0x48(%rsp)
  4066b3:	4c 89 44 24 40       	mov    %r8,0x40(%rsp)
  4066b8:	48 89 4c 24 38       	mov    %rcx,0x38(%rsp)
  4066bd:	48 89 54 24 30       	mov    %rdx,0x30(%rsp)
  4066c2:	48 89 74 24 28       	mov    %rsi,0x28(%rsp)
  4066c7:	48 8d 44 24 20       	lea    0x20(%rsp),%rax
  4066cc:	48 89 44 24 10       	mov    %rax,0x10(%rsp)
  4066d1:	48 8d 84 24 00 01 00 	lea    0x100(%rsp),%rax
  4066d8:	00 
  4066d9:	48 89 44 24 08       	mov    %rax,0x8(%rsp)
  4066de:	c7 44 24 04 30 00 00 	movl   $0x30,0x4(%rsp)
  4066e5:	00 
  4066e6:	c7 04 24 08 00 00 00 	movl   $0x8,(%rsp)
  4066ed:	48 bf c0 02 41 00 00 	movabs $0x4102c0,%rdi
  4066f4:	00 00 00 
  4066f7:	48 b8 80 6b 40 00 00 	movabs $0x406b80,%rax
  4066fe:	00 00 00 
  406701:	ff d0                	callq  *%rax
  406703:	49 bc 00 02 41 00 00 	movabs $0x410200,%r12
  40670a:	00 00 00 
  40670d:	4d 8b 3c 24          	mov    (%r12),%r15
  406711:	49 bd 90 69 40 00 00 	movabs $0x406990,%r13
  406718:	00 00 00 
  40671b:	bf 01 00 00 00       	mov    $0x1,%edi
  406720:	41 ff d5             	callq  *%r13
  406723:	48 89 c3             	mov    %rax,%rbx
  406726:	31 ff                	xor    %edi,%edi
  406728:	41 ff d5             	callq  *%r13
  40672b:	48 89 c1             	mov    %rax,%rcx
  40672e:	48 be 7f a9 40 00 00 	movabs $0x40a97f,%rsi
  406735:	00 00 00 
  406738:	49 b8 30 40 40 00 00 	movabs $0x404030,%r8
  40673f:	00 00 00 
  406742:	31 c0                	xor    %eax,%eax
  406744:	4c 89 ff             	mov    %r15,%rdi
  406747:	48 89 da             	mov    %rbx,%rdx
  40674a:	41 ff d0             	callq  *%r8
  40674d:	49 8b 3c 24          	mov    (%r12),%rdi
  406751:	48 b8 f0 3f 40 00 00 	movabs $0x403ff0,%rax
  406758:	00 00 00 
  40675b:	48 89 e2             	mov    %rsp,%rdx
  40675e:	4c 89 f6             	mov    %r14,%rsi
  406761:	ff d0                	callq  *%rax
  406763:	49 8b 34 24          	mov    (%r12),%rsi
  406767:	48 b8 d0 3f 40 00 00 	movabs $0x403fd0,%rax
  40676e:	00 00 00 
  406771:	bf 0a 00 00 00       	mov    $0xa,%edi
  406776:	ff d0                	callq  *%rax
  406778:	48 b8 80 3e 40 00 00 	movabs $0x403e80,%rax
  40677f:	00 00 00 
  406782:	ff d0                	callq  *%rax
  406784:	66 2e 0f 1f 84 00 00 	nopw   %cs:0x0(%rax,%rax,1)
  40678b:	00 00 00 
  40678e:	66 90                	xchg   %ax,%ax

0000000000406790 <effective_type_hash_v1>:
  406790:	48 8d 04 36          	lea    (%rsi,%rsi,1),%rax
  406794:	48 31 f8             	xor    %rdi,%rax
  406797:	c3                   	retq   
  406798:	0f 1f 84 00 00 00 00 	nopl   0x0(%rax,%rax,1)
  40679f:	00 

00000000004067a0 <effective_type_hash_v2>:
  4067a0:	48 31 f7             	xor    %rsi,%rdi
  4067a3:	f2 48 0f 38 f1 f2    	crc32q %rdx,%rsi
  4067a9:	48 31 f7             	xor    %rsi,%rdi
  4067ac:	48 89 f8             	mov    %rdi,%rax
  4067af:	c3                   	retq   

00000000004067b0 <effective_bounds_hash_v2>:
  4067b0:	48 39 d6             	cmp    %rdx,%rsi
  4067b3:	73 1a                	jae    4067cf <effective_bounds_hash_v2+0x1f>
  4067b5:	48 89 f8             	mov    %rdi,%rax
  4067b8:	f2 48 0f 38 f1 c6    	crc32q %rsi,%rax
  4067be:	f2 48 0f 38 f1 fa    	crc32q %rdx,%rdi
  4067c4:	48 c1 e7 20          	shl    $0x20,%rdi
  4067c8:	48 09 c7             	or     %rax,%rdi
  4067cb:	48 89 f8             	mov    %rdi,%rax
  4067ce:	c3                   	retq   
  4067cf:	48 b8 40 d6 65 16 d0 	movabs $0xd97f5dd01665d640,%rax
  4067d6:	5d 7f d9 
  4067d9:	48 b9 d9 01 16 b8 de 	movabs $0x2e55c1deb81601d9,%rcx
  4067e0:	c1 55 2e 
  4067e3:	48 89 ca             	mov    %rcx,%rdx
  4067e6:	f2 48 0f 38 f1 d0    	crc32q %rax,%rdx
  4067ec:	48 31 d7             	xor    %rdx,%rdi
  4067ef:	48 31 cf             	xor    %rcx,%rdi
  4067f2:	48 89 f8             	mov    %rdi,%rax
  4067f5:	c3                   	retq   
  4067f6:	66 2e 0f 1f 84 00 00 	nopw   %cs:0x0(%rax,%rax,1)
  4067fd:	00 00 00 

0000000000406800 <effective_type_hash_v9>:
  406800:	48 b8 79 02 41 00 00 	movabs $0x410279,%rax
  406807:	00 00 00 
  40680a:	8a 00                	mov    (%rax),%al
  40680c:	48 b9 b8 02 41 00 00 	movabs $0x4102b8,%rcx
  406813:	00 00 00 
  406816:	84 c0                	test   %al,%al
  406818:	74 0a                	je     406824 <effective_type_hash_v9+0x24>
  40681a:	48 8b 01             	mov    (%rcx),%rax
  40681d:	48 ff c0             	inc    %rax
  406820:	48 89 01             	mov    %rax,(%rcx)
  406823:	c3                   	retq   
  406824:	b8 01 00 00 00       	mov    $0x1,%eax
  406829:	f0 48 0f c1 01       	lock xadd %rax,(%rcx)
  40682e:	48 ff c0             	inc    %rax
  406831:	c3                   	retq   
  406832:	66 2e 0f 1f 84 00 00 	nopw   %cs:0x0(%rax,%rax,1)
  406839:	00 00 00 
  40683c:	0f 1f 40 00          	nopl   0x0(%rax)

0000000000406840 <effective_bounds_hash_v9>:
  406840:	48 b8 79 02 41 00 00 	movabs $0x410279,%rax
  406847:	00 00 00 
  40684a:	8a 00                	mov    (%rax),%al
  40684c:	48 b9 b8 02 41 00 00 	movabs $0x4102b8,%rcx
  406853:	00 00 00 
  406856:	84 c0                	test   %al,%al
  406858:	74 0a                	je     406864 <effective_bounds_hash_v9+0x24>
  40685a:	48 8b 01             	mov    (%rcx),%rax
  40685d:	48 ff c0             	inc    %rax
  406860:	48 89 01             	mov    %rax,(%rcx)
  406863:	c3                   	retq   
  406864:	b8 01 00 00 00       	mov    $0x1,%eax
  406869:	f0 48 0f c1 01       	lock xadd %rax,(%rcx)
  40686e:	48 ff c0             	inc    %rax
  406871:	c3                   	retq   
  406872:	66 2e 0f 1f 84 00 00 	nopw   %cs:0x0(%rax,%rax,1)
  406879:	00 00 00 
  40687c:	0f 1f 40 00          	nopl   0x0(%rax)

0000000000406880 <effective_dump>:
  406880:	55                   	push   %rbp
  406881:	41 57                	push   %r15
  406883:	41 56                	push   %r14
  406885:	41 55                	push   %r13
  406887:	41 54                	push   %r12
  406889:	53                   	push   %rbx
  40688a:	48 83 ec 18          	sub    $0x18,%rsp
  40688e:	49 89 fe             	mov    %rdi,%r14
  406891:	4c 89 f1             	mov    %r14,%rcx
  406894:	48 c1 e9 24          	shr    $0x24,%rcx
  406898:	48 bd 80 fc 40 00 00 	movabs $0x40fc80,%rbp
  40689f:	00 00 00 
  4068a2:	48 81 f9 00 04 00 00 	cmp    $0x400,%rcx
  4068a9:	77 24                	ja     4068cf <effective_dump+0x4f>
  4068ab:	48 8b 04 cd 00 00 30 	mov    0x300000(,%rcx,8),%rax
  4068b2:	00 
  4068b3:	48 85 c0             	test   %rax,%rax
  4068b6:	74 17                	je     4068cf <effective_dump+0x4f>
  4068b8:	be 00 00 20 00       	mov    $0x200000,%esi
  4068bd:	49 f7 e6             	mul    %r14
  4068c0:	48 0f af 14 ce       	imul   (%rsi,%rcx,8),%rdx
  4068c5:	48 85 d2             	test   %rdx,%rdx
  4068c8:	74 07                	je     4068d1 <effective_dump+0x51>
  4068ca:	48 8b 2a             	mov    (%rdx),%rbp
  4068cd:	eb 02                	jmp    4068d1 <effective_dump+0x51>
  4068cf:	31 d2                	xor    %edx,%edx
  4068d1:	48 83 c2 10          	add    $0x10,%rdx
  4068d5:	4d 89 f4             	mov    %r14,%r12
  4068d8:	49 29 d4             	sub    %rdx,%r12
  4068db:	48 b8 00 02 41 00 00 	movabs $0x410200,%rax
  4068e2:	00 00 00 
  4068e5:	48 8b 00             	mov    (%rax),%rax
  4068e8:	48 89 44 24 10       	mov    %rax,0x10(%rsp)
  4068ed:	48 bb e0 40 40 00 00 	movabs $0x4040e0,%rbx
  4068f4:	00 00 00 
  4068f7:	bf 02 00 00 00       	mov    $0x2,%edi
  4068fc:	ff d3                	callq  *%rbx
  4068fe:	48 89 d9             	mov    %rbx,%rcx
  406901:	85 c0                	test   %eax,%eax
  406903:	48 bb 56 a9 40 00 00 	movabs $0x40a956,%rbx
  40690a:	00 00 00 
  40690d:	49 bf 92 b1 40 00 00 	movabs $0x40b192,%r15
  406914:	00 00 00 
  406917:	49 0f 44 df          	cmove  %r15,%rbx
  40691b:	48 8b 45 30          	mov    0x30(%rbp),%rax
  40691f:	4c 8b 28             	mov    (%rax),%r13
  406922:	bf 02 00 00 00       	mov    $0x2,%edi
  406927:	ff d1                	callq  *%rcx
  406929:	85 c0                	test   %eax,%eax
  40692b:	49 b9 4b a9 40 00 00 	movabs $0x40a94b,%r9
  406932:	00 00 00 
  406935:	4d 0f 44 cf          	cmove  %r15,%r9
  406939:	4c 89 24 24          	mov    %r12,(%rsp)
  40693d:	48 be f2 a4 40 00 00 	movabs $0x40a4f2,%rsi
  406944:	00 00 00 
  406947:	49 ba 30 40 40 00 00 	movabs $0x404030,%r10
  40694e:	00 00 00 
  406951:	31 c0                	xor    %eax,%eax
  406953:	48 8b 7c 24 10       	mov    0x10(%rsp),%rdi
  406958:	4c 89 f2             	mov    %r14,%rdx
  40695b:	48 89 d9             	mov    %rbx,%rcx
  40695e:	4d 89 e8             	mov    %r13,%r8
  406961:	41 ff d2             	callq  *%r10
  406964:	48 8b 7d 30          	mov    0x30(%rbp),%rdi
  406968:	48 b8 d0 69 40 00 00 	movabs $0x4069d0,%rax
  40696f:	00 00 00 
  406972:	31 f6                	xor    %esi,%esi
  406974:	4c 89 e2             	mov    %r12,%rdx
  406977:	48 83 c4 18          	add    $0x18,%rsp
  40697b:	5b                   	pop    %rbx
  40697c:	41 5c                	pop    %r12
  40697e:	41 5d                	pop    %r13
  406980:	41 5e                	pop    %r14
  406982:	41 5f                	pop    %r15
  406984:	5d                   	pop    %rbp
  406985:	ff e0                	jmpq   *%rax
  406987:	66 0f 1f 84 00 00 00 	nopw   0x0(%rax,%rax,1)
  40698e:	00 00 

0000000000406990 <effective_set_color>:
  406990:	53                   	push   %rbx
  406991:	89 fb                	mov    %edi,%ebx
  406993:	48 b8 e0 40 40 00 00 	movabs $0x4040e0,%rax
  40699a:	00 00 00 
  40699d:	bf 02 00 00 00       	mov    $0x2,%edi
  4069a2:	ff d0                	callq  *%rax
  4069a4:	83 fb 06             	cmp    $0x6,%ebx
  4069a7:	77 17                	ja     4069c0 <effective_set_color+0x30>
  4069a9:	85 c0                	test   %eax,%eax
  4069ab:	74 13                	je     4069c0 <effective_set_color+0x30>
  4069ad:	48 63 c3             	movslq %ebx,%rax
  4069b0:	48 b9 00 fd 40 00 00 	movabs $0x40fd00,%rcx
  4069b7:	00 00 00 
  4069ba:	48 8b 04 c1          	mov    (%rcx,%rax,8),%rax
  4069be:	5b                   	pop    %rbx
  4069bf:	c3                   	retq   
  4069c0:	48 b8 92 b1 40 00 00 	movabs $0x40b192,%rax
  4069c7:	00 00 00 
  4069ca:	5b                   	pop    %rbx
  4069cb:	c3                   	retq   
  4069cc:	0f 1f 40 00          	nopl   0x0(%rax)

00000000004069d0 <effective_dump_type_stack>:
  4069d0:	55                   	push   %rbp
  4069d1:	41 57                	push   %r15
  4069d3:	41 56                	push   %r14
  4069d5:	41 55                	push   %r13
  4069d7:	41 54                	push   %r12
  4069d9:	53                   	push   %rbx
  4069da:	48 81 ec 18 28 00 00 	sub    $0x2818,%rsp
  4069e1:	48 89 f3             	mov    %rsi,%rbx
  4069e4:	48 89 fe             	mov    %rdi,%rsi
  4069e7:	48 b8 ff ff ff ff ff 	movabs $0xffffffffff,%rax
  4069ee:	00 00 00 
  4069f1:	48 c7 44 24 08 00 00 	movq   $0x0,0x8(%rsp)
  4069f8:	00 00 
  4069fa:	48 21 c2             	and    %rax,%rdx
  4069fd:	48 89 54 24 10       	mov    %rdx,0x10(%rsp)
  406a02:	48 89 74 24 18       	mov    %rsi,0x18(%rsp)
  406a07:	49 be 00 02 41 00 00 	movabs $0x410200,%r14
  406a0e:	00 00 00 
  406a11:	49 bc c0 3e 40 00 00 	movabs $0x403ec0,%r12
  406a18:	00 00 00 
  406a1b:	45 31 ff             	xor    %r15d,%r15d
  406a1e:	45 31 ed             	xor    %r13d,%r13d
  406a21:	eb 20                	jmp    406a43 <effective_dump_type_stack+0x73>
  406a23:	66 66 66 66 2e 0f 1f 	data16 data16 data16 nopw %cs:0x0(%rax,%rax,1)
  406a2a:	84 00 00 00 00 00 
  406a30:	4c 8b 2c 24          	mov    (%rsp),%r13
  406a34:	49 ff c5             	inc    %r13
  406a37:	4c 89 f8             	mov    %r15,%rax
  406a3a:	48 c1 e0 04          	shl    $0x4,%rax
  406a3e:	48 8b 74 04 18       	mov    0x18(%rsp,%rax,1),%rsi
  406a43:	c7 84 24 10 08 00 00 	movl   $0x0,0x810(%rsp)
  406a4a:	00 00 00 00 
  406a4e:	c6 84 24 14 08 00 00 	movb   $0x0,0x814(%rsp)
  406a55:	00 
  406a56:	ba 01 00 00 00       	mov    $0x1,%edx
  406a5b:	b9 01 00 00 00       	mov    $0x1,%ecx
  406a60:	41 b8 01 00 00 00    	mov    $0x1,%r8d
  406a66:	48 8d ac 24 10 08 00 	lea    0x810(%rsp),%rbp
  406a6d:	00 
  406a6e:	48 89 ef             	mov    %rbp,%rdi
  406a71:	48 b8 d0 6b 40 00 00 	movabs $0x406bd0,%rax
  406a78:	00 00 00 
  406a7b:	ff d0                	callq  *%rax
  406a7d:	31 f6                	xor    %esi,%esi
  406a7f:	48 89 ef             	mov    %rbp,%rdi
  406a82:	48 b8 30 71 40 00 00 	movabs $0x407130,%rax
  406a89:	00 00 00 
  406a8c:	ff d0                	callq  *%rax
  406a8e:	4d 85 ed             	test   %r13,%r13
  406a91:	74 27                	je     406aba <effective_dump_type_stack+0xea>
  406a93:	48 85 db             	test   %rbx,%rbx
  406a96:	74 22                	je     406aba <effective_dump_type_stack+0xea>
  406a98:	bd 01 00 00 00       	mov    $0x1,%ebp
  406a9d:	0f 1f 00             	nopl   (%rax)
  406aa0:	49 8b 36             	mov    (%r14),%rsi
  406aa3:	bf 20 00 00 00       	mov    $0x20,%edi
  406aa8:	41 ff d4             	callq  *%r12
  406aab:	48 39 dd             	cmp    %rbx,%rbp
  406aae:	73 0a                	jae    406aba <effective_dump_type_stack+0xea>
  406ab0:	48 83 fd 50          	cmp    $0x50,%rbp
  406ab4:	48 8d 6d 01          	lea    0x1(%rbp),%rbp
  406ab8:	72 e6                	jb     406aa0 <effective_dump_type_stack+0xd0>
  406aba:	4c 89 2c 24          	mov    %r13,(%rsp)
  406abe:	49 c1 e7 04          	shl    $0x4,%r15
  406ac2:	4a 8b 6c 3c 10       	mov    0x10(%rsp,%r15,1),%rbp
  406ac7:	48 b8 00 00 00 00 00 	movabs $0xff0000000000,%rax
  406ace:	ff 00 00 
  406ad1:	48 85 c5             	test   %rax,%rbp
  406ad4:	49 8b 36             	mov    (%r14),%rsi
  406ad7:	74 2a                	je     406b03 <effective_dump_type_stack+0x133>
  406ad9:	48 89 e8             	mov    %rbp,%rax
  406adc:	48 c1 e8 28          	shr    $0x28,%rax
  406ae0:	44 0f b6 f8          	movzbl %al,%r15d
  406ae4:	45 31 ed             	xor    %r13d,%r13d
  406ae7:	66 0f 1f 84 00 00 00 	nopw   0x0(%rax,%rax,1)
  406aee:	00 00 
  406af0:	bf 3e 00 00 00       	mov    $0x3e,%edi
  406af5:	41 ff d4             	callq  *%r12
  406af8:	49 ff c5             	inc    %r13
  406afb:	49 8b 36             	mov    (%r14),%rsi
  406afe:	4d 39 fd             	cmp    %r15,%r13
  406b01:	72 ed                	jb     406af0 <effective_dump_type_stack+0x120>
  406b03:	48 b8 ff ff ff ff ff 	movabs $0xffffffffff,%rax
  406b0a:	00 00 00 
  406b0d:	48 21 c5             	and    %rax,%rbp
  406b10:	31 c0                	xor    %eax,%eax
  406b12:	48 89 f7             	mov    %rsi,%rdi
  406b15:	48 be 74 a9 40 00 00 	movabs $0x40a974,%rsi
  406b1c:	00 00 00 
  406b1f:	48 8d 94 24 15 08 00 	lea    0x815(%rsp),%rdx
  406b26:	00 
  406b27:	48 89 e9             	mov    %rbp,%rcx
  406b2a:	48 bd 30 40 40 00 00 	movabs $0x404030,%rbp
  406b31:	00 00 00 
  406b34:	ff d5                	callq  *%rbp
  406b36:	31 f6                	xor    %esi,%esi
  406b38:	48 8d 7c 24 08       	lea    0x8(%rsp),%rdi
  406b3d:	48 b8 b0 72 40 00 00 	movabs $0x4072b0,%rax
  406b44:	00 00 00 
  406b47:	ff d0                	callq  *%rax
  406b49:	4c 8b 7c 24 08       	mov    0x8(%rsp),%r15
  406b4e:	4d 85 ff             	test   %r15,%r15
  406b51:	0f 89 d9 fe ff ff    	jns    406a30 <effective_dump_type_stack+0x60>
  406b57:	48 81 c4 18 28 00 00 	add    $0x2818,%rsp
  406b5e:	5b                   	pop    %rbx
  406b5f:	41 5c                	pop    %r12
  406b61:	41 5d                	pop    %r13
  406b63:	41 5e                	pop    %r14
  406b65:	41 5f                	pop    %r15
  406b67:	5d                   	pop    %rbp
  406b68:	c3                   	retq   
  406b69:	0f 1f 80 00 00 00 00 	nopl   0x0(%rax)

0000000000406b70 <effective_type_hash_v0>:
  406b70:	48 89 f0             	mov    %rsi,%rax
  406b73:	c3                   	retq   
  406b74:	66 2e 0f 1f 84 00 00 	nopw   %cs:0x0(%rax,%rax,1)
  406b7b:	00 00 00 
  406b7e:	66 90                	xchg   %ax,%ax

0000000000406b80 <effective_mutex_lock>:
  406b80:	48 b8 79 02 41 00 00 	movabs $0x410279,%rax
  406b87:	00 00 00 
  406b8a:	8a 00                	mov    (%rax),%al
  406b8c:	84 c0                	test   %al,%al
  406b8e:	74 01                	je     406b91 <effective_mutex_lock+0x11>
  406b90:	c3                   	retq   
  406b91:	48 b8 50 40 40 00 00 	movabs $0x404050,%rax
  406b98:	00 00 00 
  406b9b:	ff e0                	jmpq   *%rax
  406b9d:	0f 1f 00             	nopl   (%rax)

0000000000406ba0 <effective_bounds_hash_v0>:
  406ba0:	48 b9 40 d6 65 16 d0 	movabs $0xd97f5dd01665d640,%rcx
  406ba7:	5d 7f d9 
  406baa:	48 b8 d9 01 16 b8 de 	movabs $0x2e55c1deb81601d9,%rax
  406bb1:	c1 55 2e 
  406bb4:	48 31 c7             	xor    %rax,%rdi
  406bb7:	f2 48 0f 38 f1 c1    	crc32q %rcx,%rax
  406bbd:	48 31 f8             	xor    %rdi,%rax
  406bc0:	c3                   	retq   
  406bc1:	66 2e 0f 1f 84 00 00 	nopw   %cs:0x0(%rax,%rax,1)
  406bc8:	00 00 00 
  406bcb:	0f 1f 44 00 00       	nopl   0x0(%rax,%rax,1)

0000000000406bd0 <effective_write_type>:
  406bd0:	55                   	push   %rbp
  406bd1:	41 57                	push   %r15
  406bd3:	41 56                	push   %r14
  406bd5:	41 55                	push   %r13
  406bd7:	41 54                	push   %r12
  406bd9:	53                   	push   %rbx
  406bda:	48 83 ec 38          	sub    $0x38,%rsp
  406bde:	44 89 c5             	mov    %r8d,%ebp
  406be1:	89 cb                	mov    %ecx,%ebx
  406be3:	41 89 d5             	mov    %edx,%r13d
  406be6:	49 89 f6             	mov    %rsi,%r14
  406be9:	49 89 ff             	mov    %rdi,%r15
  406bec:	41 80 7f 04 00       	cmpb   $0x0,0x4(%r15)
  406bf1:	0f 85 bb 00 00 00    	jne    406cb2 <effective_write_type+0xe2>
  406bf7:	45 84 ed             	test   %r13b,%r13b
  406bfa:	74 3a                	je     406c36 <effective_write_type+0x66>
  406bfc:	48 b8 e0 40 40 00 00 	movabs $0x4040e0,%rax
  406c03:	00 00 00 
  406c06:	bf 02 00 00 00       	mov    $0x2,%edi
  406c0b:	ff d0                	callq  *%rax
  406c0d:	85 c0                	test   %eax,%eax
  406c0f:	48 b8 56 a9 40 00 00 	movabs $0x40a956,%rax
  406c16:	00 00 00 
  406c19:	48 be 92 b1 40 00 00 	movabs $0x40b192,%rsi
  406c20:	00 00 00 
  406c23:	48 0f 45 f0          	cmovne %rax,%rsi
  406c27:	48 b8 f0 70 40 00 00 	movabs $0x4070f0,%rax
  406c2e:	00 00 00 
  406c31:	4c 89 ff             	mov    %r15,%rdi
  406c34:	ff d0                	callq  *%rax
  406c36:	40 84 ed             	test   %bpl,%bpl
  406c39:	89 5c 24 0c          	mov    %ebx,0xc(%rsp)
  406c3d:	74 17                	je     406c56 <effective_write_type+0x86>
  406c3f:	49 8b 36             	mov    (%r14),%rsi
  406c42:	48 b8 f0 70 40 00 00 	movabs $0x4070f0,%rax
  406c49:	00 00 00 
  406c4c:	4c 89 ff             	mov    %r15,%rdi
  406c4f:	ff d0                	callq  *%rax
  406c51:	49 8b 2e             	mov    (%r14),%rbp
  406c54:	eb 36                	jmp    406c8c <effective_write_type+0xbc>
  406c56:	31 db                	xor    %ebx,%ebx
  406c58:	49 bc 30 71 40 00 00 	movabs $0x407130,%r12
  406c5f:	00 00 00 
  406c62:	eb 18                	jmp    406c7c <effective_write_type+0xac>
  406c64:	66 66 66 2e 0f 1f 84 	data16 data16 nopw %cs:0x0(%rax,%rax,1)
  406c6b:	00 00 00 00 00 
  406c70:	0f be f0             	movsbl %al,%esi
  406c73:	4c 89 ff             	mov    %r15,%rdi
  406c76:	41 ff d4             	callq  *%r12
  406c79:	48 ff c3             	inc    %rbx
  406c7c:	49 8b 2e             	mov    (%r14),%rbp
  406c7f:	0f b6 44 1d 00       	movzbl 0x0(%rbp,%rbx,1),%eax
  406c84:	84 c0                	test   %al,%al
  406c86:	74 04                	je     406c8c <effective_write_type+0xbc>
  406c88:	3c 5b                	cmp    $0x5b,%al
  406c8a:	75 e4                	jne    406c70 <effective_write_type+0xa0>
  406c8c:	48 be e0 a8 40 00 00 	movabs $0x40a8e0,%rsi
  406c93:	00 00 00 
  406c96:	48 b8 20 40 40 00 00 	movabs $0x404020,%rax
  406c9d:	00 00 00 
  406ca0:	48 89 ef             	mov    %rbp,%rdi
  406ca3:	ff d0                	callq  *%rax
  406ca5:	41 89 c4             	mov    %eax,%r12d
  406ca8:	45 85 e4             	test   %r12d,%r12d
  406cab:	74 14                	je     406cc1 <effective_write_type+0xf1>
  406cad:	45 84 ed             	test   %r13b,%r13b
  406cb0:	75 0f                	jne    406cc1 <effective_write_type+0xf1>
  406cb2:	48 83 c4 38          	add    $0x38,%rsp
  406cb6:	5b                   	pop    %rbx
  406cb7:	41 5c                	pop    %r12
  406cb9:	41 5d                	pop    %r13
  406cbb:	41 5e                	pop    %r14
  406cbd:	41 5f                	pop    %r15
  406cbf:	5d                   	pop    %rbp
  406cc0:	c3                   	retq   
  406cc1:	48 be e8 a8 40 00 00 	movabs $0x40a8e8,%rsi
  406cc8:	00 00 00 
  406ccb:	48 bb 60 3e 40 00 00 	movabs $0x403e60,%rbx
  406cd2:	00 00 00 
  406cd5:	ba 06 00 00 00       	mov    $0x6,%edx
  406cda:	48 89 ef             	mov    %rbp,%rdi
  406cdd:	ff d3                	callq  *%rbx
  406cdf:	85 c0                	test   %eax,%eax
  406ce1:	74 48                	je     406d2b <effective_write_type+0x15b>
  406ce3:	48 be ef a8 40 00 00 	movabs $0x40a8ef,%rsi
  406cea:	00 00 00 
  406ced:	ba 05 00 00 00       	mov    $0x5,%edx
  406cf2:	48 89 ef             	mov    %rbp,%rdi
  406cf5:	ff d3                	callq  *%rbx
  406cf7:	85 c0                	test   %eax,%eax
  406cf9:	74 30                	je     406d2b <effective_write_type+0x15b>
  406cfb:	48 be f5 a8 40 00 00 	movabs $0x40a8f5,%rsi
  406d02:	00 00 00 
  406d05:	ba 05 00 00 00       	mov    $0x5,%edx
  406d0a:	48 89 ef             	mov    %rbp,%rdi
  406d0d:	ff d3                	callq  *%rbx
  406d0f:	85 c0                	test   %eax,%eax
  406d11:	74 18                	je     406d2b <effective_write_type+0x15b>
  406d13:	48 be fb a8 40 00 00 	movabs $0x40a8fb,%rsi
  406d1a:	00 00 00 
  406d1d:	ba 05 00 00 00       	mov    $0x5,%edx
  406d22:	48 89 ef             	mov    %rbp,%rdi
  406d25:	ff d3                	callq  *%rbx
  406d27:	85 c0                	test   %eax,%eax
  406d29:	75 1b                	jne    406d46 <effective_write_type+0x176>
  406d2b:	48 b8 40 3e 40 00 00 	movabs $0x403e40,%rax
  406d32:	00 00 00 
  406d35:	48 89 ef             	mov    %rbp,%rdi
  406d38:	ff d0                	callq  *%rax
  406d3a:	48 85 c0             	test   %rax,%rax
  406d3d:	74 07                	je     406d46 <effective_write_type+0x176>
  406d3f:	80 7c 05 ff 2a       	cmpb   $0x2a,-0x1(%rbp,%rax,1)
  406d44:	75 3d                	jne    406d83 <effective_write_type+0x1b3>
  406d46:	48 b8 e0 40 40 00 00 	movabs $0x4040e0,%rax
  406d4d:	00 00 00 
  406d50:	bf 02 00 00 00       	mov    $0x2,%edi
  406d55:	ff d0                	callq  *%rax
  406d57:	85 c0                	test   %eax,%eax
  406d59:	48 b8 4b a9 40 00 00 	movabs $0x40a94b,%rax
  406d60:	00 00 00 
  406d63:	48 be 92 b1 40 00 00 	movabs $0x40b192,%rsi
  406d6a:	00 00 00 
  406d6d:	48 0f 45 f0          	cmovne %rax,%rsi
  406d71:	48 b8 f0 70 40 00 00 	movabs $0x4070f0,%rax
  406d78:	00 00 00 
  406d7b:	4c 89 ff             	mov    %r15,%rdi
  406d7e:	e9 57 03 00 00       	jmpq   4070da <effective_write_type+0x50a>
  406d83:	41 83 7e 0c 00       	cmpl   $0x0,0xc(%r14)
  406d88:	8b 5c 24 0c          	mov    0xc(%rsp),%ebx
  406d8c:	0f 84 05 01 00 00    	je     406e97 <effective_write_type+0x2c7>
  406d92:	89 d8                	mov    %ebx,%eax
  406d94:	34 01                	xor    $0x1,%al
  406d96:	88 44 24 0b          	mov    %al,0xb(%rsp)
  406d9a:	49 8d 6e 20          	lea    0x20(%r14),%rbp
  406d9e:	45 31 ed             	xor    %r13d,%r13d
  406da1:	31 c0                	xor    %eax,%eax
  406da3:	48 89 44 24 10       	mov    %rax,0x10(%rsp)
  406da8:	0f 1f 84 00 00 00 00 	nopl   0x0(%rax,%rax,1)
  406daf:	00 
  406db0:	41 80 7f 04 00       	cmpb   $0x0,0x4(%r15)
  406db5:	0f 85 dc 00 00 00    	jne    406e97 <effective_write_type+0x2c7>
  406dbb:	f6 45 08 01          	testb  $0x1,0x8(%rbp)
  406dbf:	0f 84 be 00 00 00    	je     406e83 <effective_write_type+0x2b3>
  406dc5:	f6 44 24 10 01       	testb  $0x1,0x10(%rsp)
  406dca:	75 22                	jne    406dee <effective_write_type+0x21e>
  406dcc:	4c 89 ff             	mov    %r15,%rdi
  406dcf:	48 be ff a8 40 00 00 	movabs $0x40a8ff,%rsi
  406dd6:	00 00 00 
  406dd9:	48 b8 f0 70 40 00 00 	movabs $0x4070f0,%rax
  406de0:	00 00 00 
  406de3:	ff d0                	callq  *%rax
  406de5:	b0 01                	mov    $0x1,%al
  406de7:	48 89 44 24 10       	mov    %rax,0x10(%rsp)
  406dec:	eb 19                	jmp    406e07 <effective_write_type+0x237>
  406dee:	4c 89 ff             	mov    %r15,%rdi
  406df1:	48 be 03 a9 40 00 00 	movabs $0x40a903,%rsi
  406df8:	00 00 00 
  406dfb:	48 b8 f0 70 40 00 00 	movabs $0x4070f0,%rax
  406e02:	00 00 00 
  406e05:	ff d0                	callq  *%rax
  406e07:	8b 5d 08             	mov    0x8(%rbp),%ebx
  406e0a:	4c 89 ff             	mov    %r15,%rdi
  406e0d:	83 e3 02             	and    $0x2,%ebx
  406e10:	74 0c                	je     406e1e <effective_write_type+0x24e>
  406e12:	48 be 06 a9 40 00 00 	movabs $0x40a906,%rsi
  406e19:	00 00 00 
  406e1c:	eb 0a                	jmp    406e28 <effective_write_type+0x258>
  406e1e:	48 be 0f a9 40 00 00 	movabs $0x40a90f,%rsi
  406e25:	00 00 00 
  406e28:	48 b8 f0 70 40 00 00 	movabs $0x4070f0,%rax
  406e2f:	00 00 00 
  406e32:	ff d0                	callq  *%rax
  406e34:	85 db                	test   %ebx,%ebx
  406e36:	0f 95 c3             	setne  %bl
  406e39:	48 8b 75 00          	mov    0x0(%rbp),%rsi
  406e3d:	31 d2                	xor    %edx,%edx
  406e3f:	31 c9                	xor    %ecx,%ecx
  406e41:	45 31 c0             	xor    %r8d,%r8d
  406e44:	4c 89 ff             	mov    %r15,%rdi
  406e47:	48 b8 d0 6b 40 00 00 	movabs $0x406bd0,%rax
  406e4e:	00 00 00 
  406e51:	ff d0                	callq  *%rax
  406e53:	0a 5c 24 0b          	or     0xb(%rsp),%bl
  406e57:	75 26                	jne    406e7f <effective_write_type+0x2af>
  406e59:	be 20 00 00 00       	mov    $0x20,%esi
  406e5e:	4c 89 ff             	mov    %r15,%rdi
  406e61:	48 b8 30 71 40 00 00 	movabs $0x407130,%rax
  406e68:	00 00 00 
  406e6b:	ff d0                	callq  *%rax
  406e6d:	4c 89 ff             	mov    %r15,%rdi
  406e70:	48 89 ee             	mov    %rbp,%rsi
  406e73:	48 b8 70 71 40 00 00 	movabs $0x407170,%rax
  406e7a:	00 00 00 
  406e7d:	ff d0                	callq  *%rax
  406e7f:	8b 5c 24 0c          	mov    0xc(%rsp),%ebx
  406e83:	49 ff c5             	inc    %r13
  406e86:	41 8b 46 0c          	mov    0xc(%r14),%eax
  406e8a:	48 83 c5 20          	add    $0x20,%rbp
  406e8e:	49 39 c5             	cmp    %rax,%r13
  406e91:	0f 82 19 ff ff ff    	jb     406db0 <effective_write_type+0x1e0>
  406e97:	45 85 e4             	test   %r12d,%r12d
  406e9a:	74 14                	je     406eb0 <effective_write_type+0x2e0>
  406e9c:	48 b8 30 71 40 00 00 	movabs $0x407130,%rax
  406ea3:	00 00 00 
  406ea6:	be 20 00 00 00       	mov    $0x20,%esi
  406eab:	4c 89 ff             	mov    %r15,%rdi
  406eae:	ff d0                	callq  *%rax
  406eb0:	48 be 17 a9 40 00 00 	movabs $0x40a917,%rsi
  406eb7:	00 00 00 
  406eba:	48 b8 f0 70 40 00 00 	movabs $0x4070f0,%rax
  406ec1:	00 00 00 
  406ec4:	4c 89 ff             	mov    %r15,%rdi
  406ec7:	ff d0                	callq  *%rax
  406ec9:	41 83 7e 0c 00       	cmpl   $0x0,0xc(%r14)
  406ece:	0f 84 40 01 00 00    	je     407014 <effective_write_type+0x444>
  406ed4:	49 8d 6e 20          	lea    0x20(%r14),%rbp
  406ed8:	45 31 e4             	xor    %r12d,%r12d
  406edb:	0f 1f 44 00 00       	nopl   0x0(%rax,%rax,1)
  406ee0:	41 80 7f 04 00       	cmpb   $0x0,0x4(%r15)
  406ee5:	0f 85 29 01 00 00    	jne    407014 <effective_write_type+0x444>
  406eeb:	f6 45 08 01          	testb  $0x1,0x8(%rbp)
  406eef:	0f 85 0b 01 00 00    	jne    407000 <effective_write_type+0x430>
  406ef5:	48 8b 75 00          	mov    0x0(%rbp),%rsi
  406ef9:	8b 7e 08             	mov    0x8(%rsi),%edi
  406efc:	48 85 ff             	test   %rdi,%rdi
  406eff:	0f 84 a0 00 00 00    	je     406fa5 <effective_write_type+0x3d5>
  406f05:	48 8b 4d 18          	mov    0x18(%rbp),%rcx
  406f09:	48 2b 4d 10          	sub    0x10(%rbp),%rcx
  406f0d:	31 d2                	xor    %edx,%edx
  406f0f:	48 89 c8             	mov    %rcx,%rax
  406f12:	48 f7 f7             	div    %rdi
  406f15:	49 89 c5             	mov    %rax,%r13
  406f18:	48 39 cf             	cmp    %rcx,%rdi
  406f1b:	0f 87 df 00 00 00    	ja     407000 <effective_write_type+0x430>
  406f21:	31 d2                	xor    %edx,%edx
  406f23:	31 c9                	xor    %ecx,%ecx
  406f25:	45 31 c0             	xor    %r8d,%r8d
  406f28:	4c 89 ff             	mov    %r15,%rdi
  406f2b:	48 b8 d0 6b 40 00 00 	movabs $0x406bd0,%rax
  406f32:	00 00 00 
  406f35:	ff d0                	callq  *%rax
  406f37:	49 83 fd 01          	cmp    $0x1,%r13
  406f3b:	74 7e                	je     406fbb <effective_write_type+0x3eb>
  406f3d:	be 5b 00 00 00       	mov    $0x5b,%esi
  406f42:	4c 89 ff             	mov    %r15,%rdi
  406f45:	48 b8 30 71 40 00 00 	movabs $0x407130,%rax
  406f4c:	00 00 00 
  406f4f:	48 89 c3             	mov    %rax,%rbx
  406f52:	ff d3                	callq  *%rbx
  406f54:	4c 89 ff             	mov    %r15,%rdi
  406f57:	4c 89 ee             	mov    %r13,%rsi
  406f5a:	48 b8 50 72 40 00 00 	movabs $0x407250,%rax
  406f61:	00 00 00 
  406f64:	ff d0                	callq  *%rax
  406f66:	be 5d 00 00 00       	mov    $0x5d,%esi
  406f6b:	4c 89 ff             	mov    %r15,%rdi
  406f6e:	ff d3                	callq  *%rbx
  406f70:	8b 5c 24 0c          	mov    0xc(%rsp),%ebx
  406f74:	48 8b 45 00          	mov    0x0(%rbp),%rax
  406f78:	48 8b 38             	mov    (%rax),%rdi
  406f7b:	be 5b 00 00 00       	mov    $0x5b,%esi
  406f80:	48 b8 30 3e 40 00 00 	movabs $0x403e30,%rax
  406f87:	00 00 00 
  406f8a:	ff d0                	callq  *%rax
  406f8c:	48 85 c0             	test   %rax,%rax
  406f8f:	74 2a                	je     406fbb <effective_write_type+0x3eb>
  406f91:	4c 89 ff             	mov    %r15,%rdi
  406f94:	48 89 c6             	mov    %rax,%rsi
  406f97:	48 b8 f0 70 40 00 00 	movabs $0x4070f0,%rax
  406f9e:	00 00 00 
  406fa1:	ff d0                	callq  *%rax
  406fa3:	eb 16                	jmp    406fbb <effective_write_type+0x3eb>
  406fa5:	31 d2                	xor    %edx,%edx
  406fa7:	31 c9                	xor    %ecx,%ecx
  406fa9:	45 31 c0             	xor    %r8d,%r8d
  406fac:	4c 89 ff             	mov    %r15,%rdi
  406faf:	48 b8 d0 6b 40 00 00 	movabs $0x406bd0,%rax
  406fb6:	00 00 00 
  406fb9:	ff d0                	callq  *%rax
  406fbb:	4c 89 ff             	mov    %r15,%rdi
  406fbe:	48 be 1c a9 40 00 00 	movabs $0x40a91c,%rsi
  406fc5:	00 00 00 
  406fc8:	48 b8 f0 70 40 00 00 	movabs $0x4070f0,%rax
  406fcf:	00 00 00 
  406fd2:	ff d0                	callq  *%rax
  406fd4:	84 db                	test   %bl,%bl
  406fd6:	74 28                	je     407000 <effective_write_type+0x430>
  406fd8:	4c 89 ff             	mov    %r15,%rdi
  406fdb:	48 89 ee             	mov    %rbp,%rsi
  406fde:	48 b8 70 71 40 00 00 	movabs $0x407170,%rax
  406fe5:	00 00 00 
  406fe8:	ff d0                	callq  *%rax
  406fea:	be 20 00 00 00       	mov    $0x20,%esi
  406fef:	4c 89 ff             	mov    %r15,%rdi
  406ff2:	48 b8 30 71 40 00 00 	movabs $0x407130,%rax
  406ff9:	00 00 00 
  406ffc:	ff d0                	callq  *%rax
  406ffe:	66 90                	xchg   %ax,%ax
  407000:	49 ff c4             	inc    %r12
  407003:	41 8b 46 0c          	mov    0xc(%r14),%eax
  407007:	48 83 c5 20          	add    $0x20,%rbp
  40700b:	49 39 c4             	cmp    %rax,%r12
  40700e:	0f 82 cc fe ff ff    	jb     406ee0 <effective_write_type+0x310>
  407014:	41 f6 46 10 02       	testb  $0x2,0x10(%r14)
  407019:	74 72                	je     40708d <effective_write_type+0x4bd>
  40701b:	49 8b 76 18          	mov    0x18(%r14),%rsi
  40701f:	48 b8 d0 6b 40 00 00 	movabs $0x406bd0,%rax
  407026:	00 00 00 
  407029:	31 d2                	xor    %edx,%edx
  40702b:	31 c9                	xor    %ecx,%ecx
  40702d:	45 31 c0             	xor    %r8d,%r8d
  407030:	4c 89 ff             	mov    %r15,%rdi
  407033:	ff d0                	callq  *%rax
  407035:	48 be 1a a9 40 00 00 	movabs $0x40a91a,%rsi
  40703c:	00 00 00 
  40703f:	4c 89 ff             	mov    %r15,%rdi
  407042:	48 b8 f0 70 40 00 00 	movabs $0x4070f0,%rax
  407049:	00 00 00 
  40704c:	ff d0                	callq  *%rax
  40704e:	84 db                	test   %bl,%bl
  407050:	74 3b                	je     40708d <effective_write_type+0x4bd>
  407052:	41 8b 46 08          	mov    0x8(%r14),%eax
  407056:	48 89 44 24 28       	mov    %rax,0x28(%rsp)
  40705b:	b8 ff ff ff ff       	mov    $0xffffffff,%eax
  407060:	48 89 44 24 30       	mov    %rax,0x30(%rsp)
  407065:	48 b8 70 71 40 00 00 	movabs $0x407170,%rax
  40706c:	00 00 00 
  40706f:	48 8d 74 24 18       	lea    0x18(%rsp),%rsi
  407074:	4c 89 ff             	mov    %r15,%rdi
  407077:	ff d0                	callq  *%rax
  407079:	48 b8 30 71 40 00 00 	movabs $0x407130,%rax
  407080:	00 00 00 
  407083:	be 20 00 00 00       	mov    $0x20,%esi
  407088:	4c 89 ff             	mov    %r15,%rdi
  40708b:	ff d0                	callq  *%rax
  40708d:	48 be 1f a9 40 00 00 	movabs $0x40a91f,%rsi
  407094:	00 00 00 
  407097:	4c 89 ff             	mov    %r15,%rdi
  40709a:	48 b8 f0 70 40 00 00 	movabs $0x4070f0,%rax
  4070a1:	00 00 00 
  4070a4:	48 89 c3             	mov    %rax,%rbx
  4070a7:	ff d3                	callq  *%rbx
  4070a9:	48 b8 e0 40 40 00 00 	movabs $0x4040e0,%rax
  4070b0:	00 00 00 
  4070b3:	bf 02 00 00 00       	mov    $0x2,%edi
  4070b8:	ff d0                	callq  *%rax
  4070ba:	85 c0                	test   %eax,%eax
  4070bc:	48 b8 4b a9 40 00 00 	movabs $0x40a94b,%rax
  4070c3:	00 00 00 
  4070c6:	48 be 92 b1 40 00 00 	movabs $0x40b192,%rsi
  4070cd:	00 00 00 
  4070d0:	48 0f 45 f0          	cmovne %rax,%rsi
  4070d4:	4c 89 ff             	mov    %r15,%rdi
  4070d7:	48 89 d8             	mov    %rbx,%rax
  4070da:	48 83 c4 38          	add    $0x38,%rsp
  4070de:	5b                   	pop    %rbx
  4070df:	41 5c                	pop    %r12
  4070e1:	41 5d                	pop    %r13
  4070e3:	41 5e                	pop    %r14
  4070e5:	41 5f                	pop    %r15
  4070e7:	5d                   	pop    %rbp
  4070e8:	ff e0                	jmpq   *%rax
  4070ea:	66 0f 1f 44 00 00    	nopw   0x0(%rax,%rax,1)

00000000004070f0 <effective_write_string>:
  4070f0:	41 57                	push   %r15
  4070f2:	41 56                	push   %r14
  4070f4:	53                   	push   %rbx
  4070f5:	48 89 f3             	mov    %rsi,%rbx
  4070f8:	49 89 fe             	mov    %rdi,%r14
  4070fb:	8a 03                	mov    (%rbx),%al
  4070fd:	84 c0                	test   %al,%al
  4070ff:	74 29                	je     40712a <effective_write_string+0x3a>
  407101:	48 ff c3             	inc    %rbx
  407104:	49 bf 30 71 40 00 00 	movabs $0x407130,%r15
  40710b:	00 00 00 
  40710e:	66 90                	xchg   %ax,%ax
  407110:	41 80 7e 04 00       	cmpb   $0x0,0x4(%r14)
  407115:	75 13                	jne    40712a <effective_write_string+0x3a>
  407117:	0f be f0             	movsbl %al,%esi
  40711a:	4c 89 f7             	mov    %r14,%rdi
  40711d:	41 ff d7             	callq  *%r15
  407120:	0f b6 03             	movzbl (%rbx),%eax
  407123:	48 ff c3             	inc    %rbx
  407126:	84 c0                	test   %al,%al
  407128:	75 e6                	jne    407110 <effective_write_string+0x20>
  40712a:	5b                   	pop    %rbx
  40712b:	41 5e                	pop    %r14
  40712d:	41 5f                	pop    %r15
  40712f:	c3                   	retq   

0000000000407130 <effective_write_char>:
  407130:	80 7f 04 00          	cmpb   $0x0,0x4(%rdi)
  407134:	75 34                	jne    40716a <effective_write_char+0x3a>
  407136:	8b 07                	mov    (%rdi),%eax
  407138:	8d 48 01             	lea    0x1(%rax),%ecx
  40713b:	89 0f                	mov    %ecx,(%rdi)
  40713d:	40 88 74 07 05       	mov    %sil,0x5(%rdi,%rax,1)
  407142:	81 f9 fc 1f 00 00    	cmp    $0x1ffc,%ecx
  407148:	75 20                	jne    40716a <effective_write_char+0x3a>
  40714a:	c6 47 04 01          	movb   $0x1,0x4(%rdi)
  40714e:	c6 87 01 20 00 00 2e 	movb   $0x2e,0x2001(%rdi)
  407155:	c6 87 02 20 00 00 2e 	movb   $0x2e,0x2002(%rdi)
  40715c:	c6 87 03 20 00 00 2e 	movb   $0x2e,0x2003(%rdi)
  407163:	c6 87 04 20 00 00 00 	movb   $0x0,0x2004(%rdi)
  40716a:	c3                   	retq   
  40716b:	0f 1f 44 00 00       	nopl   0x0(%rax,%rax,1)

0000000000407170 <effective_write_offsets>:
  407170:	55                   	push   %rbp
  407171:	41 57                	push   %r15
  407173:	41 56                	push   %r14
  407175:	41 55                	push   %r13
  407177:	41 54                	push   %r12
  407179:	53                   	push   %rbx
  40717a:	50                   	push   %rax
  40717b:	49 89 f7             	mov    %rsi,%r15
  40717e:	48 89 fb             	mov    %rdi,%rbx
  407181:	48 b8 e0 40 40 00 00 	movabs $0x4040e0,%rax
  407188:	00 00 00 
  40718b:	bf 02 00 00 00       	mov    $0x2,%edi
  407190:	ff d0                	callq  *%rax
  407192:	85 c0                	test   %eax,%eax
  407194:	48 be 68 a9 40 00 00 	movabs $0x40a968,%rsi
  40719b:	00 00 00 
  40719e:	49 be 92 b1 40 00 00 	movabs $0x40b192,%r14
  4071a5:	00 00 00 
  4071a8:	49 0f 44 f6          	cmove  %r14,%rsi
  4071ac:	48 bd f0 70 40 00 00 	movabs $0x4070f0,%rbp
  4071b3:	00 00 00 
  4071b6:	48 89 df             	mov    %rbx,%rdi
  4071b9:	ff d5                	callq  *%rbp
  4071bb:	48 be 21 a9 40 00 00 	movabs $0x40a921,%rsi
  4071c2:	00 00 00 
  4071c5:	48 89 df             	mov    %rbx,%rdi
  4071c8:	ff d5                	callq  *%rbp
  4071ca:	49 8b 77 10          	mov    0x10(%r15),%rsi
  4071ce:	49 bd 50 72 40 00 00 	movabs $0x407250,%r13
  4071d5:	00 00 00 
  4071d8:	48 89 df             	mov    %rbx,%rdi
  4071db:	41 ff d5             	callq  *%r13
  4071de:	48 be 24 a9 40 00 00 	movabs $0x40a924,%rsi
  4071e5:	00 00 00 
  4071e8:	48 89 df             	mov    %rbx,%rdi
  4071eb:	49 89 ec             	mov    %rbp,%r12
  4071ee:	ff d5                	callq  *%rbp
  4071f0:	49 8b 77 18          	mov    0x18(%r15),%rsi
  4071f4:	b8 ff ff ff ff       	mov    $0xffffffff,%eax
  4071f9:	48 39 c6             	cmp    %rax,%rsi
  4071fc:	74 06                	je     407204 <effective_write_offsets+0x94>
  4071fe:	48 89 df             	mov    %rbx,%rdi
  407201:	41 ff d5             	callq  *%r13
  407204:	48 be 27 a9 40 00 00 	movabs $0x40a927,%rsi
  40720b:	00 00 00 
  40720e:	48 89 df             	mov    %rbx,%rdi
  407211:	41 ff d4             	callq  *%r12
  407214:	bf 02 00 00 00       	mov    $0x2,%edi
  407219:	48 b8 e0 40 40 00 00 	movabs $0x4040e0,%rax
  407220:	00 00 00 
  407223:	ff d0                	callq  *%rax
  407225:	85 c0                	test   %eax,%eax
  407227:	48 b8 56 a9 40 00 00 	movabs $0x40a956,%rax
  40722e:	00 00 00 
  407231:	4c 0f 45 f0          	cmovne %rax,%r14
  407235:	48 89 df             	mov    %rbx,%rdi
  407238:	4c 89 f6             	mov    %r14,%rsi
  40723b:	4c 89 e0             	mov    %r12,%rax
  40723e:	48 83 c4 08          	add    $0x8,%rsp
  407242:	5b                   	pop    %rbx
  407243:	41 5c                	pop    %r12
  407245:	41 5d                	pop    %r13
  407247:	41 5e                	pop    %r14
  407249:	41 5f                	pop    %r15
  40724b:	5d                   	pop    %rbp
  40724c:	ff e0                	jmpq   *%rax
  40724e:	66 90                	xchg   %ax,%ax

0000000000407250 <effective_write_int>:
  407250:	53                   	push   %rbx
  407251:	48 83 ec 70          	sub    $0x70,%rsp
  407255:	48 89 f1             	mov    %rsi,%rcx
  407258:	48 89 fb             	mov    %rdi,%rbx
  40725b:	80 7b 04 00          	cmpb   $0x0,0x4(%rbx)
  40725f:	75 3a                	jne    40729b <effective_write_int+0x4b>
  407261:	48 ba 2a a9 40 00 00 	movabs $0x40a92a,%rdx
  407268:	00 00 00 
  40726b:	49 b8 b0 40 40 00 00 	movabs $0x4040b0,%r8
  407272:	00 00 00 
  407275:	48 89 e7             	mov    %rsp,%rdi
  407278:	be 63 00 00 00       	mov    $0x63,%esi
  40727d:	31 c0                	xor    %eax,%eax
  40727f:	41 ff d0             	callq  *%r8
  407282:	ff c8                	dec    %eax
  407284:	83 f8 62             	cmp    $0x62,%eax
  407287:	77 12                	ja     40729b <effective_write_int+0x4b>
  407289:	48 b8 f0 70 40 00 00 	movabs $0x4070f0,%rax
  407290:	00 00 00 
  407293:	48 89 e6             	mov    %rsp,%rsi
  407296:	48 89 df             	mov    %rbx,%rdi
  407299:	ff d0                	callq  *%rax
  40729b:	48 83 c4 70          	add    $0x70,%rsp
  40729f:	5b                   	pop    %rbx
  4072a0:	c3                   	retq   
  4072a1:	66 2e 0f 1f 84 00 00 	nopw   %cs:0x0(%rax,%rax,1)
  4072a8:	00 00 00 
  4072ab:	0f 1f 44 00 00       	nopl   0x0(%rax,%rax,1)

00000000004072b0 <effective_typestack_next>:
  4072b0:	55                   	push   %rbp
  4072b1:	41 57                	push   %r15
  4072b3:	41 56                	push   %r14
  4072b5:	41 55                	push   %r13
  4072b7:	41 54                	push   %r12
  4072b9:	53                   	push   %rbx
  4072ba:	48 8b 0f             	mov    (%rdi),%rcx
  4072bd:	48 85 c9             	test   %rcx,%rcx
  4072c0:	0f 88 dc 01 00 00    	js     4074a2 <effective_typestack_next+0x1f2>
  4072c6:	49 b9 ff ff ff ff ff 	movabs $0xffffffffff,%r9
  4072cd:	00 00 00 
  4072d0:	49 ba 00 00 00 00 00 	movabs $0x1000000000000,%r10
  4072d7:	00 01 00 
  4072da:	66 0f 1f 44 00 00    	nopw   0x0(%rax,%rax,1)
  4072e0:	48 89 cb             	mov    %rcx,%rbx
  4072e3:	48 c1 e3 04          	shl    $0x4,%rbx
  4072e7:	4c 8b 64 1f 08       	mov    0x8(%rdi,%rbx,1),%r12
  4072ec:	4c 8b 74 1f 10       	mov    0x10(%rdi,%rbx,1),%r14
  4072f1:	4c 89 e2             	mov    %r12,%rdx
  4072f4:	48 c1 ea 28          	shr    $0x28,%rdx
  4072f8:	4c 89 e0             	mov    %r12,%rax
  4072fb:	4c 21 c8             	and    %r9,%rax
  4072fe:	74 0d                	je     40730d <effective_typestack_next+0x5d>
  407300:	41 8b 6e 08          	mov    0x8(%r14),%ebp
  407304:	48 39 e8             	cmp    %rbp,%rax
  407307:	0f 83 26 01 00 00    	jae    407433 <effective_typestack_next+0x183>
  40730d:	4c 89 e3             	mov    %r12,%rbx
  407310:	48 c1 eb 30          	shr    $0x30,%rbx
  407314:	41 8b 6e 0c          	mov    0xc(%r14),%ebp
  407318:	48 39 eb             	cmp    %rbp,%rbx
  40731b:	0f 83 df 00 00 00    	jae    407400 <effective_typestack_next+0x150>
  407321:	48 c1 e2 28          	shl    $0x28,%rdx
  407325:	4e 8d 5c 0a 01       	lea    0x1(%rdx,%r9,1),%r11
  40732a:	48 ba 00 00 00 00 00 	movabs $0xff0000000000,%rdx
  407331:	ff 00 00 
  407334:	49 21 d3             	and    %rdx,%r11
  407337:	49 89 dd             	mov    %rbx,%r13
  40733a:	49 c1 e5 30          	shl    $0x30,%r13
  40733e:	4d 01 d5             	add    %r10,%r13
  407341:	4c 8d 7b 01          	lea    0x1(%rbx),%r15
  407345:	48 c1 e3 05          	shl    $0x5,%rbx
  407349:	4d 8d 44 1e 38       	lea    0x38(%r14,%rbx,1),%r8
  40734e:	eb 16                	jmp    407366 <effective_typestack_next+0xb6>
  407350:	48 89 ca             	mov    %rcx,%rdx
  407353:	48 c1 e2 04          	shl    $0x4,%rdx
  407357:	4c 8b 64 17 08       	mov    0x8(%rdi,%rdx,1),%r12
  40735c:	49 ff c7             	inc    %r15
  40735f:	4d 01 d5             	add    %r10,%r13
  407362:	49 83 c0 20          	add    $0x20,%r8
  407366:	48 89 ca             	mov    %rcx,%rdx
  407369:	48 c1 e2 04          	shl    $0x4,%rdx
  40736d:	49 8d 5a ff          	lea    -0x1(%r10),%rbx
  407371:	4c 21 e3             	and    %r12,%rbx
  407374:	4c 09 eb             	or     %r13,%rbx
  407377:	48 89 5c 17 08       	mov    %rbx,0x8(%rdi,%rdx,1)
  40737c:	45 31 e4             	xor    %r12d,%r12d
  40737f:	41 f6 40 f0 02       	testb  $0x2,-0x10(%r8)
  407384:	75 0c                	jne    407392 <effective_typestack_next+0xe2>
  407386:	49 8b 50 f8          	mov    -0x8(%r8),%rdx
  40738a:	48 89 c3             	mov    %rax,%rbx
  40738d:	48 29 d3             	sub    %rdx,%rbx
  407390:	73 1e                	jae    4073b0 <effective_typestack_next+0x100>
  407392:	44 89 e1             	mov    %r12d,%ecx
  407395:	80 e1 07             	and    $0x7,%cl
  407398:	80 f9 06             	cmp    $0x6,%cl
  40739b:	74 04                	je     4073a1 <effective_typestack_next+0xf1>
  40739d:	84 c9                	test   %cl,%cl
  40739f:	75 7f                	jne    407420 <effective_typestack_next+0x170>
  4073a1:	41 8b 56 0c          	mov    0xc(%r14),%edx
  4073a5:	48 8b 0f             	mov    (%rdi),%rcx
  4073a8:	49 39 d7             	cmp    %rdx,%r15
  4073ab:	72 a3                	jb     407350 <effective_typestack_next+0xa0>
  4073ad:	eb 51                	jmp    407400 <effective_typestack_next+0x150>
  4073af:	90                   	nop
  4073b0:	49 8b 28             	mov    (%r8),%rbp
  4073b3:	48 39 e8             	cmp    %rbp,%rax
  4073b6:	73 da                	jae    407392 <effective_typestack_next+0xe2>
  4073b8:	48 29 d5             	sub    %rdx,%rbp
  4073bb:	48 39 f5             	cmp    %rsi,%rbp
  4073be:	72 d2                	jb     407392 <effective_typestack_next+0xe2>
  4073c0:	48 8d 69 01          	lea    0x1(%rcx),%rbp
  4073c4:	48 89 2f             	mov    %rbp,(%rdi)
  4073c7:	48 83 f9 7f          	cmp    $0x7f,%rcx
  4073cb:	7c 0b                	jl     4073d8 <effective_typestack_next+0x128>
  4073cd:	48 89 0f             	mov    %rcx,(%rdi)
  4073d0:	41 bc 06 00 00 00    	mov    $0x6,%r12d
  4073d6:	eb ba                	jmp    407392 <effective_typestack_next+0xe2>
  4073d8:	48 c1 e5 04          	shl    $0x4,%rbp
  4073dc:	48 89 d8             	mov    %rbx,%rax
  4073df:	4c 21 c8             	and    %r9,%rax
  4073e2:	4c 09 d8             	or     %r11,%rax
  4073e5:	48 89 44 2f 08       	mov    %rax,0x8(%rdi,%rbp,1)
  4073ea:	49 8b 40 e8          	mov    -0x18(%r8),%rax
  4073ee:	48 89 44 2f 10       	mov    %rax,0x10(%rdi,%rbp,1)
  4073f3:	41 bc 01 00 00 00    	mov    $0x1,%r12d
  4073f9:	48 89 d8             	mov    %rbx,%rax
  4073fc:	eb 94                	jmp    407392 <effective_typestack_next+0xe2>
  4073fe:	66 90                	xchg   %ax,%ax
  407400:	48 ff c9             	dec    %rcx
  407403:	48 89 0f             	mov    %rcx,(%rdi)
  407406:	48 85 c9             	test   %rcx,%rcx
  407409:	0f 89 d1 fe ff ff    	jns    4072e0 <effective_typestack_next+0x30>
  40740f:	e9 8e 00 00 00       	jmpq   4074a2 <effective_typestack_next+0x1f2>
  407414:	66 66 66 2e 0f 1f 84 	data16 data16 nopw %cs:0x0(%rax,%rax,1)
  40741b:	00 00 00 00 00 
  407420:	45 85 e4             	test   %r12d,%r12d
  407423:	75 7d                	jne    4074a2 <effective_typestack_next+0x1f2>
  407425:	48 8b 0f             	mov    (%rdi),%rcx
  407428:	48 85 c9             	test   %rcx,%rcx
  40742b:	0f 89 af fe ff ff    	jns    4072e0 <effective_typestack_next+0x30>
  407431:	eb 6f                	jmp    4074a2 <effective_typestack_next+0x1f2>
  407433:	48 8d 4c 1f 08       	lea    0x8(%rdi,%rbx,1),%rcx
  407438:	41 f6 46 10 02       	testb  $0x2,0x10(%r14)
  40743d:	75 0b                	jne    40744a <effective_typestack_next+0x19a>
  40743f:	85 ed                	test   %ebp,%ebp
  407441:	74 4a                	je     40748d <effective_typestack_next+0x1dd>
  407443:	31 d2                	xor    %edx,%edx
  407445:	48 f7 f5             	div    %rbp
  407448:	eb 45                	jmp    40748f <effective_typestack_next+0x1df>
  40744a:	48 8d 44 1f 10       	lea    0x10(%rdi,%rbx,1),%rax
  40744f:	4c 89 e6             	mov    %r12,%rsi
  407452:	48 29 ee             	sub    %rbp,%rsi
  407455:	4c 21 ce             	and    %r9,%rsi
  407458:	48 bf 00 00 00 00 00 	movabs $0xffff000000000000,%rdi
  40745f:	00 ff ff 
  407462:	4c 21 e7             	and    %r12,%rdi
  407465:	48 c1 e2 28          	shl    $0x28,%rdx
  407469:	4a 8d 54 0a 01       	lea    0x1(%rdx,%r9,1),%rdx
  40746e:	48 bd 00 00 00 00 00 	movabs $0xff0000000000,%rbp
  407475:	ff 00 00 
  407478:	48 21 ea             	and    %rbp,%rdx
  40747b:	48 09 fa             	or     %rdi,%rdx
  40747e:	48 09 f2             	or     %rsi,%rdx
  407481:	48 89 11             	mov    %rdx,(%rcx)
  407484:	49 8b 4e 18          	mov    0x18(%r14),%rcx
  407488:	48 89 08             	mov    %rcx,(%rax)
  40748b:	eb 15                	jmp    4074a2 <effective_typestack_next+0x1f2>
  40748d:	31 d2                	xor    %edx,%edx
  40748f:	48 b8 00 00 00 00 00 	movabs $0xffffff0000000000,%rax
  407496:	ff ff ff 
  407499:	49 21 c4             	and    %rax,%r12
  40749c:	49 09 d4             	or     %rdx,%r12
  40749f:	4c 89 21             	mov    %r12,(%rcx)
  4074a2:	5b                   	pop    %rbx
  4074a3:	41 5c                	pop    %r12
  4074a5:	41 5d                	pop    %r13
  4074a7:	41 5e                	pop    %r14
  4074a9:	41 5f                	pop    %r15
  4074ab:	5d                   	pop    %rbp
  4074ac:	c3                   	retq   
  4074ad:	0f 1f 00             	nopl   (%rax)

00000000004074b0 <lowfat_stack_pivot>:
  4074b0:	48 89 e7             	mov    %rsp,%rdi
  4074b3:	48 b8 90 9a 40 00 00 	movabs $0x409a90,%rax
  4074ba:	00 00 00 
  4074bd:	ff d0                	callq  *%rax
  4074bf:	48 89 c4             	mov    %rax,%rsp
  4074c2:	c3                   	retq   
  4074c3:	66 2e 0f 1f 84 00 00 	nopw   %cs:0x0(%rax,%rax,1)
  4074ca:	00 00 00 
  4074cd:	0f 1f 00             	nopl   (%rax)

00000000004074d0 <lowfat_color_escape_code>:
  4074d0:	55                   	push   %rbp
  4074d1:	41 57                	push   %r15
  4074d3:	41 56                	push   %r14
  4074d5:	53                   	push   %rbx
  4074d6:	50                   	push   %rax
  4074d7:	41 89 f6             	mov    %esi,%r14d
  4074da:	48 89 fb             	mov    %rdi,%rbx
  4074dd:	48 b8 10 3e 40 00 00 	movabs $0x403e10,%rax
  4074e4:	00 00 00 
  4074e7:	ff d0                	callq  *%rax
  4074e9:	48 89 c5             	mov    %rax,%rbp
  4074ec:	44 8b 7d 00          	mov    0x0(%rbp),%r15d
  4074f0:	48 b8 50 3f 40 00 00 	movabs $0x403f50,%rax
  4074f7:	00 00 00 
  4074fa:	48 89 df             	mov    %rbx,%rdi
  4074fd:	ff d0                	callq  *%rax
  4074ff:	48 b9 e0 40 40 00 00 	movabs $0x4040e0,%rcx
  407506:	00 00 00 
  407509:	89 c7                	mov    %eax,%edi
  40750b:	ff d1                	callq  *%rcx
  40750d:	44 89 7d 00          	mov    %r15d,0x0(%rbp)
  407511:	48 b9 50 a9 40 00 00 	movabs $0x40a950,%rcx
  407518:	00 00 00 
  40751b:	48 ba 4b a9 40 00 00 	movabs $0x40a94b,%rdx
  407522:	00 00 00 
  407525:	45 84 f6             	test   %r14b,%r14b
  407528:	48 0f 45 d1          	cmovne %rcx,%rdx
  40752c:	85 c0                	test   %eax,%eax
  40752e:	48 b8 92 b1 40 00 00 	movabs $0x40b192,%rax
  407535:	00 00 00 
  407538:	48 0f 45 c2          	cmovne %rdx,%rax
  40753c:	48 83 c4 08          	add    $0x8,%rsp
  407540:	5b                   	pop    %rbx
  407541:	41 5e                	pop    %r14
  407543:	41 5f                	pop    %r15
  407545:	5d                   	pop    %rbp
  407546:	c3                   	retq   
  407547:	66 0f 1f 84 00 00 00 	nopw   0x0(%rax,%rax,1)
  40754e:	00 00 

0000000000407550 <lowfat_pthread_create>:
  407550:	55                   	push   %rbp
  407551:	41 57                	push   %r15
  407553:	41 56                	push   %r14
  407555:	41 55                	push   %r13
  407557:	41 54                	push   %r12
  407559:	53                   	push   %rbx
  40755a:	48 83 ec 48          	sub    $0x48,%rsp
  40755e:	49 89 ce             	mov    %rcx,%r14
  407561:	49 89 d7             	mov    %rdx,%r15
  407564:	48 89 f3             	mov    %rsi,%rbx
  407567:	49 89 fc             	mov    %rdi,%r12
  40756a:	49 bd e8 02 41 00 00 	movabs $0x4102e8,%r13
  407571:	00 00 00 
  407574:	49 83 7d 00 00       	cmpq   $0x0,0x0(%r13)
  407579:	75 55                	jne    4075d0 <lowfat_pthread_create+0x80>
  40757b:	48 bf f0 02 41 00 00 	movabs $0x4102f0,%rdi
  407582:	00 00 00 
  407585:	48 b8 80 40 40 00 00 	movabs $0x404080,%rax
  40758c:	00 00 00 
  40758f:	31 f6                	xor    %esi,%esi
  407591:	ff d0                	callq  *%rax
  407593:	48 be 3f ac 40 00 00 	movabs $0x40ac3f,%rsi
  40759a:	00 00 00 
  40759d:	48 b8 00 41 40 00 00 	movabs $0x404100,%rax
  4075a4:	00 00 00 
  4075a7:	48 c7 c7 ff ff ff ff 	mov    $0xffffffffffffffff,%rdi
  4075ae:	ff d0                	callq  *%rax
  4075b0:	49 89 45 00          	mov    %rax,0x0(%r13)
  4075b4:	48 85 c0             	test   %rax,%rax
  4075b7:	0f 84 29 02 00 00    	je     4077e6 <lowfat_pthread_create+0x296>
  4075bd:	48 b9 50 75 40 00 00 	movabs $0x407550,%rcx
  4075c4:	00 00 00 
  4075c7:	48 39 c8             	cmp    %rcx,%rax
  4075ca:	0f 84 16 02 00 00    	je     4077e6 <lowfat_pthread_create+0x296>
  4075d0:	48 85 db             	test   %rbx,%rbx
  4075d3:	74 6d                	je     407642 <lowfat_pthread_create+0xf2>
  4075d5:	48 b8 00 3f 40 00 00 	movabs $0x403f00,%rax
  4075dc:	00 00 00 
  4075df:	48 89 e6             	mov    %rsp,%rsi
  4075e2:	48 8d 54 24 08       	lea    0x8(%rsp),%rdx
  4075e7:	48 89 df             	mov    %rbx,%rdi
  4075ea:	ff d0                	callq  *%rax
  4075ec:	85 c0                	test   %eax,%eax
  4075ee:	0f 85 d5 01 00 00    	jne    4077c9 <lowfat_pthread_create+0x279>
  4075f4:	48 83 3c 24 00       	cmpq   $0x0,(%rsp)
  4075f9:	75 0a                	jne    407605 <lowfat_pthread_create+0xb5>
  4075fb:	48 8b 44 24 08       	mov    0x8(%rsp),%rax
  407600:	48 85 c0             	test   %rax,%rax
  407603:	74 18                	je     40761d <lowfat_pthread_create+0xcd>
  407605:	48 bf 6f ac 40 00 00 	movabs $0x40ac6f,%rdi
  40760c:	00 00 00 
  40760f:	48 b9 f0 78 40 00 00 	movabs $0x4078f0,%rcx
  407616:	00 00 00 
  407619:	31 c0                	xor    %eax,%eax
  40761b:	ff d1                	callq  *%rcx
  40761d:	48 8b 43 30          	mov    0x30(%rbx),%rax
  407621:	48 89 44 24 40       	mov    %rax,0x40(%rsp)
  407626:	0f 10 03             	movups (%rbx),%xmm0
  407629:	0f 10 4b 10          	movups 0x10(%rbx),%xmm1
  40762d:	0f 10 53 20          	movups 0x20(%rbx),%xmm2
  407631:	0f 29 54 24 30       	movaps %xmm2,0x30(%rsp)
  407636:	0f 29 4c 24 20       	movaps %xmm1,0x20(%rsp)
  40763b:	0f 29 44 24 10       	movaps %xmm0,0x10(%rsp)
  407640:	eb 19                	jmp    40765b <lowfat_pthread_create+0x10b>
  407642:	48 b8 b0 3f 40 00 00 	movabs $0x403fb0,%rax
  407649:	00 00 00 
  40764c:	48 8d 7c 24 10       	lea    0x10(%rsp),%rdi
  407651:	ff d0                	callq  *%rax
  407653:	85 c0                	test   %eax,%eax
  407655:	0f 85 a3 01 00 00    	jne    4077fe <lowfat_pthread_create+0x2ae>
  40765b:	48 b8 90 79 40 00 00 	movabs $0x407990,%rax
  407662:	00 00 00 
  407665:	ff d0                	callq  *%rax
  407667:	48 89 04 24          	mov    %rax,(%rsp)
  40766b:	48 85 c0             	test   %rax,%rax
  40766e:	0f 84 2c 01 00 00    	je     4077a0 <lowfat_pthread_create+0x250>
  407674:	48 c7 44 24 08 f0 ff 	movq   $0x3fffff0,0x8(%rsp)
  40767b:	ff 03 
  40767d:	48 b9 40 41 40 00 00 	movabs $0x404140,%rcx
  407684:	00 00 00 
  407687:	48 8d 7c 24 10       	lea    0x10(%rsp),%rdi
  40768c:	ba f0 ff ff 03       	mov    $0x3fffff0,%edx
  407691:	48 89 c6             	mov    %rax,%rsi
  407694:	ff d1                	callq  *%rcx
  407696:	85 c0                	test   %eax,%eax
  407698:	0f 85 0e 01 00 00    	jne    4077ac <lowfat_pthread_create+0x25c>
  40769e:	48 8d 74 24 10       	lea    0x10(%rsp),%rsi
  4076a3:	4c 89 e7             	mov    %r12,%rdi
  4076a6:	4c 89 fa             	mov    %r15,%rdx
  4076a9:	4c 89 f1             	mov    %r14,%rcx
  4076ac:	41 ff 55 00          	callq  *0x0(%r13)
  4076b0:	41 89 c7             	mov    %eax,%r15d
  4076b3:	45 85 ff             	test   %r15d,%r15d
  4076b6:	74 72                	je     40772a <lowfat_pthread_create+0x1da>
  4076b8:	48 8b 04 24          	mov    (%rsp),%rax
  4076bc:	89 c1                	mov    %eax,%ecx
  4076be:	81 e1 ff ff ff 03    	and    $0x3ffffff,%ecx
  4076c4:	48 29 c8             	sub    %rcx,%rax
  4076c7:	48 8d 88 00 f0 ff 03 	lea    0x3fff000(%rax),%rcx
  4076ce:	c7 80 d0 f2 ff 03 ff 	movl   $0xffffffff,0x3fff2d0(%rax)
  4076d5:	ff ff ff 
  4076d8:	89 ca                	mov    %ecx,%edx
  4076da:	81 e2 ff ff ff 03    	and    $0x3ffffff,%edx
  4076e0:	48 89 cb             	mov    %rcx,%rbx
  4076e3:	48 29 d3             	sub    %rdx,%rbx
  4076e6:	48 f7 da             	neg    %rdx
  4076e9:	48 89 8c 10 f0 ef ff 	mov    %rcx,0x7ffeff0(%rax,%rdx,1)
  4076f0:	07 
  4076f1:	49 be f0 02 41 00 00 	movabs $0x4102f0,%r14
  4076f8:	00 00 00 
  4076fb:	48 b8 50 40 40 00 00 	movabs $0x404050,%rax
  407702:	00 00 00 
  407705:	4c 89 f7             	mov    %r14,%rdi
  407708:	ff d0                	callq  *%rax
  40770a:	48 b8 70 03 41 00 00 	movabs $0x410370,%rax
  407711:	00 00 00 
  407714:	48 8b 08             	mov    (%rax),%rcx
  407717:	48 89 8b f8 ff ff 03 	mov    %rcx,0x3fffff8(%rbx)
  40771e:	48 8d 8b f0 ff ff 03 	lea    0x3fffff0(%rbx),%rcx
  407725:	48 89 08             	mov    %rcx,(%rax)
  407728:	eb 55                	jmp    40777f <lowfat_pthread_create+0x22f>
  40772a:	4d 8b 24 24          	mov    (%r12),%r12
  40772e:	44 89 e3             	mov    %r12d,%ebx
  407731:	81 e3 ff ff ff 03    	and    $0x3ffffff,%ebx
  407737:	4c 89 e5             	mov    %r12,%rbp
  40773a:	48 29 dd             	sub    %rbx,%rbp
  40773d:	48 f7 db             	neg    %rbx
  407740:	4c 89 a5 f0 ff ff 03 	mov    %r12,0x3fffff0(%rbp)
  407747:	48 81 c5 f0 ff ff 03 	add    $0x3fffff0,%rbp
  40774e:	49 be f0 02 41 00 00 	movabs $0x4102f0,%r14
  407755:	00 00 00 
  407758:	48 b8 50 40 40 00 00 	movabs $0x404050,%rax
  40775f:	00 00 00 
  407762:	4c 89 f7             	mov    %r14,%rdi
  407765:	ff d0                	callq  *%rax
  407767:	48 b8 70 03 41 00 00 	movabs $0x410370,%rax
  40776e:	00 00 00 
  407771:	48 8b 08             	mov    (%rax),%rcx
  407774:	49 89 8c 1c f8 ff ff 	mov    %rcx,0x3fffff8(%r12,%rbx,1)
  40777b:	03 
  40777c:	48 89 28             	mov    %rbp,(%rax)
  40777f:	48 b8 10 3f 40 00 00 	movabs $0x403f10,%rax
  407786:	00 00 00 
  407789:	4c 89 f7             	mov    %r14,%rdi
  40778c:	ff d0                	callq  *%rax
  40778e:	44 89 f8             	mov    %r15d,%eax
  407791:	48 83 c4 48          	add    $0x48,%rsp
  407795:	5b                   	pop    %rbx
  407796:	41 5c                	pop    %r12
  407798:	41 5d                	pop    %r13
  40779a:	41 5e                	pop    %r14
  40779c:	41 5f                	pop    %r15
  40779e:	5d                   	pop    %rbp
  40779f:	c3                   	retq   
  4077a0:	48 bf c6 ac 40 00 00 	movabs $0x40acc6,%rdi
  4077a7:	00 00 00 
  4077aa:	eb 44                	jmp    4077f0 <lowfat_pthread_create+0x2a0>
  4077ac:	48 b9 20 3e 40 00 00 	movabs $0x403e20,%rcx
  4077b3:	00 00 00 
  4077b6:	89 c7                	mov    %eax,%edi
  4077b8:	ff d1                	callq  *%rcx
  4077ba:	48 89 c1             	mov    %rax,%rcx
  4077bd:	48 bf ee ac 40 00 00 	movabs $0x40acee,%rdi
  4077c4:	00 00 00 
  4077c7:	eb 5c                	jmp    407825 <lowfat_pthread_create+0x2d5>
  4077c9:	48 b9 20 3e 40 00 00 	movabs $0x403e20,%rcx
  4077d0:	00 00 00 
  4077d3:	89 c7                	mov    %eax,%edi
  4077d5:	ff d1                	callq  *%rcx
  4077d7:	48 89 c1             	mov    %rax,%rcx
  4077da:	48 bf 4e ac 40 00 00 	movabs $0x40ac4e,%rdi
  4077e1:	00 00 00 
  4077e4:	eb 3f                	jmp    407825 <lowfat_pthread_create+0x2d5>
  4077e6:	48 bf 30 ac 40 00 00 	movabs $0x40ac30,%rdi
  4077ed:	00 00 00 
  4077f0:	48 b9 40 78 40 00 00 	movabs $0x407840,%rcx
  4077f7:	00 00 00 
  4077fa:	31 c0                	xor    %eax,%eax
  4077fc:	ff d1                	callq  *%rcx
  4077fe:	48 b8 10 3e 40 00 00 	movabs $0x403e10,%rax
  407805:	00 00 00 
  407808:	ff d0                	callq  *%rax
  40780a:	8b 38                	mov    (%rax),%edi
  40780c:	48 b8 20 3e 40 00 00 	movabs $0x403e20,%rax
  407813:	00 00 00 
  407816:	ff d0                	callq  *%rax
  407818:	48 89 c1             	mov    %rax,%rcx
  40781b:	48 bf a9 ac 40 00 00 	movabs $0x40aca9,%rdi
  407822:	00 00 00 
  407825:	48 ba 40 78 40 00 00 	movabs $0x407840,%rdx
  40782c:	00 00 00 
  40782f:	31 c0                	xor    %eax,%eax
  407831:	48 89 ce             	mov    %rcx,%rsi
  407834:	ff d2                	callq  *%rdx
  407836:	66 2e 0f 1f 84 00 00 	nopw   %cs:0x0(%rax,%rax,1)
  40783d:	00 00 00 

0000000000407840 <lowfat_error>:
  407840:	48 81 ec d8 00 00 00 	sub    $0xd8,%rsp
  407847:	84 c0                	test   %al,%al
  407849:	74 37                	je     407882 <lowfat_error+0x42>
  40784b:	0f 29 44 24 50       	movaps %xmm0,0x50(%rsp)
  407850:	0f 29 4c 24 60       	movaps %xmm1,0x60(%rsp)
  407855:	0f 29 54 24 70       	movaps %xmm2,0x70(%rsp)
  40785a:	0f 29 9c 24 80 00 00 	movaps %xmm3,0x80(%rsp)
  407861:	00 
  407862:	0f 29 a4 24 90 00 00 	movaps %xmm4,0x90(%rsp)
  407869:	00 
  40786a:	0f 29 ac 24 a0 00 00 	movaps %xmm5,0xa0(%rsp)
  407871:	00 
  407872:	0f 29 b4 24 b0 00 00 	movaps %xmm6,0xb0(%rsp)
  407879:	00 
  40787a:	0f 29 bc 24 c0 00 00 	movaps %xmm7,0xc0(%rsp)
  407881:	00 
  407882:	4c 89 4c 24 48       	mov    %r9,0x48(%rsp)
  407887:	4c 89 44 24 40       	mov    %r8,0x40(%rsp)
  40788c:	48 89 4c 24 38       	mov    %rcx,0x38(%rsp)
  407891:	48 89 54 24 30       	mov    %rdx,0x30(%rsp)
  407896:	48 89 74 24 28       	mov    %rsi,0x28(%rsp)
  40789b:	48 8d 44 24 20       	lea    0x20(%rsp),%rax
  4078a0:	48 89 44 24 10       	mov    %rax,0x10(%rsp)
  4078a5:	48 8d 84 24 e0 00 00 	lea    0xe0(%rsp),%rax
  4078ac:	00 
  4078ad:	48 89 44 24 08       	mov    %rax,0x8(%rsp)
  4078b2:	c7 44 24 04 30 00 00 	movl   $0x30,0x4(%rsp)
  4078b9:	00 
  4078ba:	c7 04 24 08 00 00 00 	movl   $0x8,(%rsp)
  4078c1:	48 b8 e0 9d 40 00 00 	movabs $0x409de0,%rax
  4078c8:	00 00 00 
  4078cb:	48 89 e2             	mov    %rsp,%rdx
  4078ce:	be 01 00 00 00       	mov    $0x1,%esi
  4078d3:	ff d0                	callq  *%rax
  4078d5:	48 b8 80 3e 40 00 00 	movabs $0x403e80,%rax
  4078dc:	00 00 00 
  4078df:	ff d0                	callq  *%rax
  4078e1:	66 2e 0f 1f 84 00 00 	nopw   %cs:0x0(%rax,%rax,1)
  4078e8:	00 00 00 
  4078eb:	0f 1f 44 00 00       	nopl   0x0(%rax,%rax,1)

00000000004078f0 <lowfat_warning>:
  4078f0:	48 81 ec d8 00 00 00 	sub    $0xd8,%rsp
  4078f7:	84 c0                	test   %al,%al
  4078f9:	74 37                	je     407932 <lowfat_warning+0x42>
  4078fb:	0f 29 44 24 50       	movaps %xmm0,0x50(%rsp)
  407900:	0f 29 4c 24 60       	movaps %xmm1,0x60(%rsp)
  407905:	0f 29 54 24 70       	movaps %xmm2,0x70(%rsp)
  40790a:	0f 29 9c 24 80 00 00 	movaps %xmm3,0x80(%rsp)
  407911:	00 
  407912:	0f 29 a4 24 90 00 00 	movaps %xmm4,0x90(%rsp)
  407919:	00 
  40791a:	0f 29 ac 24 a0 00 00 	movaps %xmm5,0xa0(%rsp)
  407921:	00 
  407922:	0f 29 b4 24 b0 00 00 	movaps %xmm6,0xb0(%rsp)
  407929:	00 
  40792a:	0f 29 bc 24 c0 00 00 	movaps %xmm7,0xc0(%rsp)
  407931:	00 
  407932:	4c 89 4c 24 48       	mov    %r9,0x48(%rsp)
  407937:	4c 89 44 24 40       	mov    %r8,0x40(%rsp)
  40793c:	48 89 4c 24 38       	mov    %rcx,0x38(%rsp)
  407941:	48 89 54 24 30       	mov    %rdx,0x30(%rsp)
  407946:	48 89 74 24 28       	mov    %rsi,0x28(%rsp)
  40794b:	48 8d 44 24 20       	lea    0x20(%rsp),%rax
  407950:	48 89 44 24 10       	mov    %rax,0x10(%rsp)
  407955:	48 8d 84 24 e0 00 00 	lea    0xe0(%rsp),%rax
  40795c:	00 
  40795d:	48 89 44 24 08       	mov    %rax,0x8(%rsp)
  407962:	c7 44 24 04 30 00 00 	movl   $0x30,0x4(%rsp)
  407969:	00 
  40796a:	c7 04 24 08 00 00 00 	movl   $0x8,(%rsp)
  407971:	48 b8 e0 9d 40 00 00 	movabs $0x409de0,%rax
  407978:	00 00 00 
  40797b:	48 89 e2             	mov    %rsp,%rdx
  40797e:	31 f6                	xor    %esi,%esi
  407980:	ff d0                	callq  *%rax
  407982:	48 81 c4 d8 00 00 00 	add    $0xd8,%rsp
  407989:	c3                   	retq   
  40798a:	66 0f 1f 44 00 00    	nopw   0x0(%rax,%rax,1)

0000000000407990 <lowfat_stack_alloc>:
  407990:	55                   	push   %rbp
  407991:	41 57                	push   %r15
  407993:	41 56                	push   %r14
  407995:	41 55                	push   %r13
  407997:	41 54                	push   %r12
  407999:	53                   	push   %rbx
  40799a:	50                   	push   %rax
  40799b:	48 bf f0 02 41 00 00 	movabs $0x4102f0,%rdi
  4079a2:	00 00 00 
  4079a5:	48 b8 50 40 40 00 00 	movabs $0x404050,%rax
  4079ac:	00 00 00 
  4079af:	ff d0                	callq  *%rax
  4079b1:	48 b8 70 03 41 00 00 	movabs $0x410370,%rax
  4079b8:	00 00 00 
  4079bb:	48 8b 10             	mov    (%rax),%rdx
  4079be:	48 85 d2             	test   %rdx,%rdx
  4079c1:	74 3c                	je     4079ff <lowfat_stack_alloc+0x6f>
  4079c3:	31 c9                	xor    %ecx,%ecx
  4079c5:	66 66 2e 0f 1f 84 00 	data16 nopw %cs:0x0(%rax,%rax,1)
  4079cc:	00 00 00 00 
  4079d0:	48 89 d3             	mov    %rdx,%rbx
  4079d3:	48 8b 13             	mov    (%rbx),%rdx
  4079d6:	8b b2 d0 02 00 00    	mov    0x2d0(%rdx),%esi
  4079dc:	85 f6                	test   %esi,%esi
  4079de:	7f 13                	jg     4079f3 <lowfat_stack_alloc+0x63>
  4079e0:	0f 85 f8 00 00 00    	jne    407ade <lowfat_stack_alloc+0x14e>
  4079e6:	48 39 92 28 06 00 00 	cmp    %rdx,0x628(%rdx)
  4079ed:	0f 84 eb 00 00 00    	je     407ade <lowfat_stack_alloc+0x14e>
  4079f3:	48 8b 53 08          	mov    0x8(%rbx),%rdx
  4079f7:	48 85 d2             	test   %rdx,%rdx
  4079fa:	48 89 d9             	mov    %rbx,%rcx
  4079fd:	75 d1                	jne    4079d0 <lowfat_stack_alloc+0x40>
  4079ff:	48 b8 78 03 41 00 00 	movabs $0x410378,%rax
  407a06:	00 00 00 
  407a09:	48 8b 18             	mov    (%rax),%rbx
  407a0c:	48 81 fb 00 01 00 00 	cmp    $0x100,%rbx
  407a13:	72 2d                	jb     407a42 <lowfat_stack_alloc+0xb2>
  407a15:	48 bf f0 02 41 00 00 	movabs $0x4102f0,%rdi
  407a1c:	00 00 00 
  407a1f:	48 b8 10 3f 40 00 00 	movabs $0x403f10,%rax
  407a26:	00 00 00 
  407a29:	ff d0                	callq  *%rax
  407a2b:	48 b8 10 3e 40 00 00 	movabs $0x403e10,%rax
  407a32:	00 00 00 
  407a35:	ff d0                	callq  *%rax
  407a37:	c7 00 0c 00 00 00    	movl   $0xc,(%rax)
  407a3d:	e9 98 00 00 00       	jmpq   407ada <lowfat_stack_alloc+0x14a>
  407a42:	48 8d 4b 01          	lea    0x1(%rbx),%rcx
  407a46:	48 89 08             	mov    %rcx,(%rax)
  407a49:	48 bf f0 02 41 00 00 	movabs $0x4102f0,%rdi
  407a50:	00 00 00 
  407a53:	48 b8 10 3f 40 00 00 	movabs $0x403f10,%rax
  407a5a:	00 00 00 
  407a5d:	ff d0                	callq  *%rax
  407a5f:	48 b8 80 03 41 00 00 	movabs $0x410380,%rax
  407a66:	00 00 00 
  407a69:	0f b7 04 58          	movzwl (%rax,%rbx,2),%eax
  407a6d:	48 c1 e0 1a          	shl    $0x1a,%rax
  407a71:	48 bb 00 00 00 00 fc 	movabs $0x3fc00000000,%rbx
  407a78:	03 00 00 
  407a7b:	48 01 c3             	add    %rax,%rbx
  407a7e:	49 be 00 00 02 00 fc 	movabs $0x3fc00020000,%r14
  407a85:	03 00 00 
  407a88:	49 01 c6             	add    %rax,%r14
  407a8b:	49 bf 40 0e 00 00 00 	movabs $0x60000000e40,%r15
  407a92:	06 00 00 
  407a95:	49 bc 00 00 00 00 10 	movabs $0xfffffc1000000000,%r12
  407a9c:	fc ff ff 
  407a9f:	49 bd a0 40 40 00 00 	movabs $0x4040a0,%r13
  407aa6:	00 00 00 
  407aa9:	31 ed                	xor    %ebp,%ebp
  407aab:	0f 1f 44 00 00       	nopl   0x0(%rax,%rax,1)
  407ab0:	49 8b 3c ef          	mov    (%r15,%rbp,8),%rdi
  407ab4:	48 c1 e7 24          	shl    $0x24,%rdi
  407ab8:	4c 01 f7             	add    %r14,%rdi
  407abb:	4c 01 e7             	add    %r12,%rdi
  407abe:	be 00 00 fe 03       	mov    $0x3fe0000,%esi
  407ac3:	ba 03 00 00 00       	mov    $0x3,%edx
  407ac8:	41 ff d5             	callq  *%r13
  407acb:	85 c0                	test   %eax,%eax
  407acd:	75 0b                	jne    407ada <lowfat_stack_alloc+0x14a>
  407acf:	48 ff c5             	inc    %rbp
  407ad2:	48 83 fd 17          	cmp    $0x17,%rbp
  407ad6:	75 d8                	jne    407ab0 <lowfat_stack_alloc+0x120>
  407ad8:	eb 36                	jmp    407b10 <lowfat_stack_alloc+0x180>
  407ada:	31 db                	xor    %ebx,%ebx
  407adc:	eb 32                	jmp    407b10 <lowfat_stack_alloc+0x180>
  407ade:	48 85 c9             	test   %rcx,%rcx
  407ae1:	48 8d 49 08          	lea    0x8(%rcx),%rcx
  407ae5:	48 8b 53 08          	mov    0x8(%rbx),%rdx
  407ae9:	48 0f 45 c1          	cmovne %rcx,%rax
  407aed:	48 89 10             	mov    %rdx,(%rax)
  407af0:	89 d8                	mov    %ebx,%eax
  407af2:	25 ff ff ff 03       	and    $0x3ffffff,%eax
  407af7:	48 29 c3             	sub    %rax,%rbx
  407afa:	48 bf f0 02 41 00 00 	movabs $0x4102f0,%rdi
  407b01:	00 00 00 
  407b04:	48 b8 10 3f 40 00 00 	movabs $0x403f10,%rax
  407b0b:	00 00 00 
  407b0e:	ff d0                	callq  *%rax
  407b10:	48 89 d8             	mov    %rbx,%rax
  407b13:	48 83 c4 08          	add    $0x8,%rsp
  407b17:	5b                   	pop    %rbx
  407b18:	41 5c                	pop    %r12
  407b1a:	41 5d                	pop    %r13
  407b1c:	41 5e                	pop    %r14
  407b1e:	41 5f                	pop    %r15
  407b20:	5d                   	pop    %rbp
  407b21:	c3                   	retq   
  407b22:	66 2e 0f 1f 84 00 00 	nopw   %cs:0x0(%rax,%rax,1)
  407b29:	00 00 00 
  407b2c:	0f 1f 40 00          	nopl   0x0(%rax)

0000000000407b30 <lowfat_malloc_init>:
  407b30:	55                   	push   %rbp
  407b31:	41 57                	push   %r15
  407b33:	41 56                	push   %r14
  407b35:	41 55                	push   %r13
  407b37:	41 54                	push   %r12
  407b39:	53                   	push   %rbx
  407b3a:	50                   	push   %rax
  407b3b:	49 bc 00 00 00 00 10 	movabs $0x1000000000,%r12
  407b42:	00 00 00 
  407b45:	49 bd 90 05 41 00 00 	movabs $0x410590,%r13
  407b4c:	00 00 00 
  407b4f:	49 83 c5 48          	add    $0x48,%r13
  407b53:	31 ed                	xor    %ebp,%ebp
  407b55:	41 be 00 00 20 00    	mov    $0x200000,%r14d
  407b5b:	49 bf 00 00 ff ff 07 	movabs $0x7ffff0000,%r15
  407b62:	00 00 00 
  407b65:	66 66 2e 0f 1f 84 00 	data16 nopw %cs:0x0(%rax,%rax,1)
  407b6c:	00 00 00 00 
  407b70:	be 04 00 00 00       	mov    $0x4,%esi
  407b75:	48 8d 7c 24 04       	lea    0x4(%rsp),%rdi
  407b7a:	48 b8 40 7c 40 00 00 	movabs $0x407c40,%rax
  407b81:	00 00 00 
  407b84:	ff d0                	callq  *%rax
  407b86:	8b 44 24 04          	mov    0x4(%rsp),%eax
  407b8a:	4c 01 e0             	add    %r12,%rax
  407b8d:	49 8b 4c ee 08       	mov    0x8(%r14,%rbp,8),%rcx
  407b92:	48 8d 84 01 00 10 00 	lea    0x1000(%rcx,%rax,1),%rax
  407b99:	00 
  407b9a:	48 89 c1             	mov    %rax,%rcx
  407b9d:	48 c1 e9 24          	shr    $0x24,%rcx
  407ba1:	49 f7 a4 ce 00 00 10 	mulq   0x100000(%r14,%rcx,8)
  407ba8:	00 
  407ba9:	48 89 d3             	mov    %rdx,%rbx
  407bac:	49 0f af 1c ce       	imul   (%r14,%rcx,8),%rbx
  407bb1:	31 f6                	xor    %esi,%esi
  407bb3:	4c 89 ef             	mov    %r13,%rdi
  407bb6:	48 b8 80 40 40 00 00 	movabs $0x404080,%rax
  407bbd:	00 00 00 
  407bc0:	ff d0                	callq  *%rax
  407bc2:	85 c0                	test   %eax,%eax
  407bc4:	75 5b                	jne    407c21 <lowfat_malloc_init+0xf1>
  407bc6:	48 ff c5             	inc    %rbp
  407bc9:	49 c7 45 28 00 00 00 	movq   $0x0,0x28(%r13)
  407bd0:	00 
  407bd1:	49 89 5d 30          	mov    %rbx,0x30(%r13)
  407bd5:	4b 8d 04 3c          	lea    (%r12,%r15,1),%rax
  407bd9:	49 89 45 38          	mov    %rax,0x38(%r13)
  407bdd:	89 d8                	mov    %ebx,%eax
  407bdf:	25 ff 0f 00 00       	and    $0xfff,%eax
  407be4:	48 29 c3             	sub    %rax,%rbx
  407be7:	49 89 5d 40          	mov    %rbx,0x40(%r13)
  407beb:	ba 03 00 00 00       	mov    $0x3,%edx
  407bf0:	4c 89 e7             	mov    %r12,%rdi
  407bf3:	4c 89 fe             	mov    %r15,%rsi
  407bf6:	48 b8 a0 40 40 00 00 	movabs $0x4040a0,%rax
  407bfd:	00 00 00 
  407c00:	ff d0                	callq  *%rax
  407c02:	48 b8 00 00 00 00 10 	movabs $0x1000000000,%rax
  407c09:	00 00 00 
  407c0c:	49 01 c4             	add    %rax,%r12
  407c0f:	49 83 c5 48          	add    $0x48,%r13
  407c13:	48 83 fd 3e          	cmp    $0x3e,%rbp
  407c17:	0f 82 53 ff ff ff    	jb     407b70 <lowfat_malloc_init+0x40>
  407c1d:	b0 01                	mov    $0x1,%al
  407c1f:	eb 02                	jmp    407c23 <lowfat_malloc_init+0xf3>
  407c21:	31 c0                	xor    %eax,%eax
  407c23:	48 83 c4 08          	add    $0x8,%rsp
  407c27:	5b                   	pop    %rbx
  407c28:	41 5c                	pop    %r12
  407c2a:	41 5d                	pop    %r13
  407c2c:	41 5e                	pop    %r14
  407c2e:	41 5f                	pop    %r15
  407c30:	5d                   	pop    %rbp
  407c31:	c3                   	retq   
  407c32:	66 2e 0f 1f 84 00 00 	nopw   %cs:0x0(%rax,%rax,1)
  407c39:	00 00 00 
  407c3c:	0f 1f 40 00          	nopl   0x0(%rax)

0000000000407c40 <lowfat_rand>:
  407c40:	55                   	push   %rbp
  407c41:	41 57                	push   %r15
  407c43:	41 56                	push   %r14
  407c45:	41 55                	push   %r13
  407c47:	41 54                	push   %r12
  407c49:	53                   	push   %rbx
  407c4a:	50                   	push   %rax
  407c4b:	49 89 f6             	mov    %rsi,%r14
  407c4e:	48 89 fb             	mov    %rdi,%rbx
  407c51:	4d 85 f6             	test   %r14,%r14
  407c54:	0f 84 c9 00 00 00    	je     407d23 <lowfat_rand+0xe3>
  407c5a:	49 bd e0 01 41 00 00 	movabs $0x4101e0,%r13
  407c61:	00 00 00 
  407c64:	49 8b 45 00          	mov    0x0(%r13),%rax
  407c68:	48 bd 58 03 41 00 00 	movabs $0x410358,%rbp
  407c6f:	00 00 00 
  407c72:	49 bf 80 05 41 00 00 	movabs $0x410580,%r15
  407c79:	00 00 00 
  407c7c:	0f 1f 40 00          	nopl   0x0(%rax)
  407c80:	48 3d 00 10 00 00    	cmp    $0x1000,%rax
  407c86:	72 7a                	jb     407d02 <lowfat_rand+0xc2>
  407c88:	4c 8b 65 00          	mov    0x0(%rbp),%r12
  407c8c:	41 80 3f 01          	cmpb   $0x1,(%r15)
  407c90:	75 0e                	jne    407ca0 <lowfat_rand+0x60>
  407c92:	48 b8 e8 01 41 00 00 	movabs $0x4101e8,%rax
  407c99:	00 00 00 
  407c9c:	8b 00                	mov    (%rax),%eax
  407c9e:	eb 35                	jmp    407cd5 <lowfat_rand+0x95>
  407ca0:	41 c6 07 01          	movb   $0x1,(%r15)
  407ca4:	be 00 00 08 00       	mov    $0x80000,%esi
  407ca9:	31 c0                	xor    %eax,%eax
  407cab:	48 bf cc af 40 00 00 	movabs $0x40afcc,%rdi
  407cb2:	00 00 00 
  407cb5:	48 b9 f0 3e 40 00 00 	movabs $0x403ef0,%rcx
  407cbc:	00 00 00 
  407cbf:	ff d1                	callq  *%rcx
  407cc1:	48 b9 e8 01 41 00 00 	movabs $0x4101e8,%rcx
  407cc8:	00 00 00 
  407ccb:	89 01                	mov    %eax,(%rcx)
  407ccd:	85 c0                	test   %eax,%eax
  407ccf:	0f 88 ad 00 00 00    	js     407d82 <lowfat_rand+0x142>
  407cd5:	ba 00 10 00 00       	mov    $0x1000,%edx
  407cda:	89 c7                	mov    %eax,%edi
  407cdc:	4c 89 e6             	mov    %r12,%rsi
  407cdf:	48 b8 40 40 40 00 00 	movabs $0x404040,%rax
  407ce6:	00 00 00 
  407ce9:	ff d0                	callq  *%rax
  407ceb:	48 85 c0             	test   %rax,%rax
  407cee:	78 42                	js     407d32 <lowfat_rand+0xf2>
  407cf0:	48 3d 00 10 00 00    	cmp    $0x1000,%rax
  407cf6:	75 63                	jne    407d5b <lowfat_rand+0x11b>
  407cf8:	49 c7 45 00 00 00 00 	movq   $0x0,0x0(%r13)
  407cff:	00 
  407d00:	31 c0                	xor    %eax,%eax
  407d02:	48 8b 4d 00          	mov    0x0(%rbp),%rcx
  407d06:	0f b6 14 01          	movzbl (%rcx,%rax,1),%edx
  407d0a:	88 13                	mov    %dl,(%rbx)
  407d0c:	c6 04 01 00          	movb   $0x0,(%rcx,%rax,1)
  407d10:	48 ff c0             	inc    %rax
  407d13:	49 89 45 00          	mov    %rax,0x0(%r13)
  407d17:	48 ff c3             	inc    %rbx
  407d1a:	49 ff ce             	dec    %r14
  407d1d:	0f 85 5d ff ff ff    	jne    407c80 <lowfat_rand+0x40>
  407d23:	48 83 c4 08          	add    $0x8,%rsp
  407d27:	5b                   	pop    %rbx
  407d28:	41 5c                	pop    %r12
  407d2a:	41 5d                	pop    %r13
  407d2c:	41 5e                	pop    %r14
  407d2e:	41 5f                	pop    %r15
  407d30:	5d                   	pop    %rbp
  407d31:	c3                   	retq   
  407d32:	48 b8 10 3e 40 00 00 	movabs $0x403e10,%rax
  407d39:	00 00 00 
  407d3c:	ff d0                	callq  *%rax
  407d3e:	8b 38                	mov    (%rax),%edi
  407d40:	48 b8 20 3e 40 00 00 	movabs $0x403e20,%rax
  407d47:	00 00 00 
  407d4a:	ff d0                	callq  *%rax
  407d4c:	48 89 c1             	mov    %rax,%rcx
  407d4f:	48 bf f1 af 40 00 00 	movabs $0x40aff1,%rdi
  407d56:	00 00 00 
  407d59:	eb 4e                	jmp    407da9 <lowfat_rand+0x169>
  407d5b:	48 bf 09 b0 40 00 00 	movabs $0x40b009,%rdi
  407d62:	00 00 00 
  407d65:	48 ba cc af 40 00 00 	movabs $0x40afcc,%rdx
  407d6c:	00 00 00 
  407d6f:	48 b9 40 78 40 00 00 	movabs $0x407840,%rcx
  407d76:	00 00 00 
  407d79:	be 00 10 00 00       	mov    $0x1000,%esi
  407d7e:	31 c0                	xor    %eax,%eax
  407d80:	ff d1                	callq  *%rcx
  407d82:	48 b8 10 3e 40 00 00 	movabs $0x403e10,%rax
  407d89:	00 00 00 
  407d8c:	ff d0                	callq  *%rax
  407d8e:	8b 38                	mov    (%rax),%edi
  407d90:	48 b8 20 3e 40 00 00 	movabs $0x403e20,%rax
  407d97:	00 00 00 
  407d9a:	ff d0                	callq  *%rax
  407d9c:	48 89 c1             	mov    %rax,%rcx
  407d9f:	48 bf d9 af 40 00 00 	movabs $0x40afd9,%rdi
  407da6:	00 00 00 
  407da9:	48 be cc af 40 00 00 	movabs $0x40afcc,%rsi
  407db0:	00 00 00 
  407db3:	48 bd 40 78 40 00 00 	movabs $0x407840,%rbp
  407dba:	00 00 00 
  407dbd:	31 c0                	xor    %eax,%eax
  407dbf:	48 89 ca             	mov    %rcx,%rdx
  407dc2:	ff d5                	callq  *%rbp
  407dc4:	66 2e 0f 1f 84 00 00 	nopw   %cs:0x0(%rax,%rax,1)
  407dcb:	00 00 00 
  407dce:	66 90                	xchg   %ax,%ax

0000000000407dd0 <lowfat__Znam>:
  407dd0:	53                   	push   %rbx
  407dd1:	48 89 fb             	mov    %rdi,%rbx
  407dd4:	48 b8 00 7e 40 00 00 	movabs $0x407e00,%rax
  407ddb:	00 00 00 
  407dde:	ff d0                	callq  *%rax
  407de0:	48 b9 d0 81 40 00 00 	movabs $0x4081d0,%rcx
  407de7:	00 00 00 
  407dea:	48 89 c7             	mov    %rax,%rdi
  407ded:	48 89 de             	mov    %rbx,%rsi
  407df0:	5b                   	pop    %rbx
  407df1:	ff e1                	jmpq   *%rcx
  407df3:	66 2e 0f 1f 84 00 00 	nopw   %cs:0x0(%rax,%rax,1)
  407dfa:	00 00 00 
  407dfd:	0f 1f 00             	nopl   (%rax)

0000000000407e00 <lowfat_heap_select>:
  407e00:	48 0f bd c7          	bsr    %rdi,%rax
  407e04:	f7 d0                	not    %eax
  407e06:	24 3f                	and    $0x3f,%al
  407e08:	04 e3                	add    $0xe3,%al
  407e0a:	3c 22                	cmp    $0x22,%al
  407e0c:	0f 87 b5 03 00 00    	ja     4081c7 <lowfat_heap_select+0x3c7>
  407e12:	0f b6 c0             	movzbl %al,%eax
  407e15:	48 b9 94 a9 40 00 00 	movabs $0x40a994,%rcx
  407e1c:	00 00 00 
  407e1f:	48 63 04 81          	movslq (%rcx,%rax,4),%rax
  407e23:	48 01 c8             	add    %rcx,%rax
  407e26:	ff e0                	jmpq   *%rax
  407e28:	48 83 ff 10          	cmp    $0x10,%rdi
  407e2c:	73 06                	jae    407e34 <lowfat_heap_select+0x34>
  407e2e:	b8 01 00 00 00       	mov    $0x1,%eax
  407e33:	c3                   	retq   
  407e34:	48 83 ff 20          	cmp    $0x20,%rdi
  407e38:	73 06                	jae    407e40 <lowfat_heap_select+0x40>
  407e3a:	b8 02 00 00 00       	mov    $0x2,%eax
  407e3f:	c3                   	retq   
  407e40:	48 83 ff 30          	cmp    $0x30,%rdi
  407e44:	73 06                	jae    407e4c <lowfat_heap_select+0x4c>
  407e46:	b8 03 00 00 00       	mov    $0x3,%eax
  407e4b:	c3                   	retq   
  407e4c:	48 83 ff 40          	cmp    $0x40,%rdi
  407e50:	73 06                	jae    407e58 <lowfat_heap_select+0x58>
  407e52:	b8 04 00 00 00       	mov    $0x4,%eax
  407e57:	c3                   	retq   
  407e58:	48 83 ff 50          	cmp    $0x50,%rdi
  407e5c:	73 06                	jae    407e64 <lowfat_heap_select+0x64>
  407e5e:	b8 05 00 00 00       	mov    $0x5,%eax
  407e63:	c3                   	retq   
  407e64:	48 83 ff 60          	cmp    $0x60,%rdi
  407e68:	73 06                	jae    407e70 <lowfat_heap_select+0x70>
  407e6a:	b8 06 00 00 00       	mov    $0x6,%eax
  407e6f:	c3                   	retq   
  407e70:	48 83 ff 70          	cmp    $0x70,%rdi
  407e74:	73 06                	jae    407e7c <lowfat_heap_select+0x7c>
  407e76:	b8 07 00 00 00       	mov    $0x7,%eax
  407e7b:	c3                   	retq   
  407e7c:	48 81 ff 80 00 00 00 	cmp    $0x80,%rdi
  407e83:	73 06                	jae    407e8b <lowfat_heap_select+0x8b>
  407e85:	b8 08 00 00 00       	mov    $0x8,%eax
  407e8a:	c3                   	retq   
  407e8b:	48 81 ff 90 00 00 00 	cmp    $0x90,%rdi
  407e92:	73 06                	jae    407e9a <lowfat_heap_select+0x9a>
  407e94:	b8 09 00 00 00       	mov    $0x9,%eax
  407e99:	c3                   	retq   
  407e9a:	48 81 ff a0 00 00 00 	cmp    $0xa0,%rdi
  407ea1:	73 06                	jae    407ea9 <lowfat_heap_select+0xa9>
  407ea3:	b8 0a 00 00 00       	mov    $0xa,%eax
  407ea8:	c3                   	retq   
  407ea9:	48 81 ff c0 00 00 00 	cmp    $0xc0,%rdi
  407eb0:	73 06                	jae    407eb8 <lowfat_heap_select+0xb8>
  407eb2:	b8 0b 00 00 00       	mov    $0xb,%eax
  407eb7:	c3                   	retq   
  407eb8:	48 81 ff e0 00 00 00 	cmp    $0xe0,%rdi
  407ebf:	73 06                	jae    407ec7 <lowfat_heap_select+0xc7>
  407ec1:	b8 0c 00 00 00       	mov    $0xc,%eax
  407ec6:	c3                   	retq   
  407ec7:	48 81 ff 00 01 00 00 	cmp    $0x100,%rdi
  407ece:	73 06                	jae    407ed6 <lowfat_heap_select+0xd6>
  407ed0:	b8 0d 00 00 00       	mov    $0xd,%eax
  407ed5:	c3                   	retq   
  407ed6:	48 81 ff 10 01 00 00 	cmp    $0x110,%rdi
  407edd:	73 06                	jae    407ee5 <lowfat_heap_select+0xe5>
  407edf:	b8 0e 00 00 00       	mov    $0xe,%eax
  407ee4:	c3                   	retq   
  407ee5:	48 81 ff 40 01 00 00 	cmp    $0x140,%rdi
  407eec:	73 06                	jae    407ef4 <lowfat_heap_select+0xf4>
  407eee:	b8 0f 00 00 00       	mov    $0xf,%eax
  407ef3:	c3                   	retq   
  407ef4:	48 81 ff 80 01 00 00 	cmp    $0x180,%rdi
  407efb:	73 06                	jae    407f03 <lowfat_heap_select+0x103>
  407efd:	b8 10 00 00 00       	mov    $0x10,%eax
  407f02:	c3                   	retq   
  407f03:	48 81 ff c0 01 00 00 	cmp    $0x1c0,%rdi
  407f0a:	73 06                	jae    407f12 <lowfat_heap_select+0x112>
  407f0c:	b8 11 00 00 00       	mov    $0x11,%eax
  407f11:	c3                   	retq   
  407f12:	48 81 ff 00 02 00 00 	cmp    $0x200,%rdi
  407f19:	73 06                	jae    407f21 <lowfat_heap_select+0x121>
  407f1b:	b8 12 00 00 00       	mov    $0x12,%eax
  407f20:	c3                   	retq   
  407f21:	48 81 ff 10 02 00 00 	cmp    $0x210,%rdi
  407f28:	73 06                	jae    407f30 <lowfat_heap_select+0x130>
  407f2a:	b8 13 00 00 00       	mov    $0x13,%eax
  407f2f:	c3                   	retq   
  407f30:	48 81 ff 80 02 00 00 	cmp    $0x280,%rdi
  407f37:	73 06                	jae    407f3f <lowfat_heap_select+0x13f>
  407f39:	b8 14 00 00 00       	mov    $0x14,%eax
  407f3e:	c3                   	retq   
  407f3f:	48 81 ff 00 03 00 00 	cmp    $0x300,%rdi
  407f46:	73 06                	jae    407f4e <lowfat_heap_select+0x14e>
  407f48:	b8 15 00 00 00       	mov    $0x15,%eax
  407f4d:	c3                   	retq   
  407f4e:	48 81 ff 80 03 00 00 	cmp    $0x380,%rdi
  407f55:	73 06                	jae    407f5d <lowfat_heap_select+0x15d>
  407f57:	b8 16 00 00 00       	mov    $0x16,%eax
  407f5c:	c3                   	retq   
  407f5d:	48 81 ff 00 04 00 00 	cmp    $0x400,%rdi
  407f64:	73 06                	jae    407f6c <lowfat_heap_select+0x16c>
  407f66:	b8 17 00 00 00       	mov    $0x17,%eax
  407f6b:	c3                   	retq   
  407f6c:	48 81 ff 10 04 00 00 	cmp    $0x410,%rdi
  407f73:	73 06                	jae    407f7b <lowfat_heap_select+0x17b>
  407f75:	b8 18 00 00 00       	mov    $0x18,%eax
  407f7a:	c3                   	retq   
  407f7b:	48 81 ff 00 05 00 00 	cmp    $0x500,%rdi
  407f82:	73 06                	jae    407f8a <lowfat_heap_select+0x18a>
  407f84:	b8 19 00 00 00       	mov    $0x19,%eax
  407f89:	c3                   	retq   
  407f8a:	48 81 ff 00 06 00 00 	cmp    $0x600,%rdi
  407f91:	73 06                	jae    407f99 <lowfat_heap_select+0x199>
  407f93:	b8 1a 00 00 00       	mov    $0x1a,%eax
  407f98:	c3                   	retq   
  407f99:	48 81 ff 00 07 00 00 	cmp    $0x700,%rdi
  407fa0:	73 06                	jae    407fa8 <lowfat_heap_select+0x1a8>
  407fa2:	b8 1b 00 00 00       	mov    $0x1b,%eax
  407fa7:	c3                   	retq   
  407fa8:	48 81 ff 00 08 00 00 	cmp    $0x800,%rdi
  407faf:	73 06                	jae    407fb7 <lowfat_heap_select+0x1b7>
  407fb1:	b8 1c 00 00 00       	mov    $0x1c,%eax
  407fb6:	c3                   	retq   
  407fb7:	48 81 ff 10 08 00 00 	cmp    $0x810,%rdi
  407fbe:	73 06                	jae    407fc6 <lowfat_heap_select+0x1c6>
  407fc0:	b8 1d 00 00 00       	mov    $0x1d,%eax
  407fc5:	c3                   	retq   
  407fc6:	48 81 ff 00 0a 00 00 	cmp    $0xa00,%rdi
  407fcd:	73 06                	jae    407fd5 <lowfat_heap_select+0x1d5>
  407fcf:	b8 1e 00 00 00       	mov    $0x1e,%eax
  407fd4:	c3                   	retq   
  407fd5:	48 81 ff 00 0c 00 00 	cmp    $0xc00,%rdi
  407fdc:	73 06                	jae    407fe4 <lowfat_heap_select+0x1e4>
  407fde:	b8 1f 00 00 00       	mov    $0x1f,%eax
  407fe3:	c3                   	retq   
  407fe4:	48 81 ff 00 0e 00 00 	cmp    $0xe00,%rdi
  407feb:	73 06                	jae    407ff3 <lowfat_heap_select+0x1f3>
  407fed:	b8 20 00 00 00       	mov    $0x20,%eax
  407ff2:	c3                   	retq   
  407ff3:	48 81 ff 00 10 00 00 	cmp    $0x1000,%rdi
  407ffa:	73 06                	jae    408002 <lowfat_heap_select+0x202>
  407ffc:	b8 21 00 00 00       	mov    $0x21,%eax
  408001:	c3                   	retq   
  408002:	48 81 ff 10 10 00 00 	cmp    $0x1010,%rdi
  408009:	73 06                	jae    408011 <lowfat_heap_select+0x211>
  40800b:	b8 22 00 00 00       	mov    $0x22,%eax
  408010:	c3                   	retq   
  408011:	48 81 ff 00 14 00 00 	cmp    $0x1400,%rdi
  408018:	73 06                	jae    408020 <lowfat_heap_select+0x220>
  40801a:	b8 23 00 00 00       	mov    $0x23,%eax
  40801f:	c3                   	retq   
  408020:	48 81 ff 00 18 00 00 	cmp    $0x1800,%rdi
  408027:	73 06                	jae    40802f <lowfat_heap_select+0x22f>
  408029:	b8 24 00 00 00       	mov    $0x24,%eax
  40802e:	c3                   	retq   
  40802f:	48 81 ff 00 1c 00 00 	cmp    $0x1c00,%rdi
  408036:	73 06                	jae    40803e <lowfat_heap_select+0x23e>
  408038:	b8 25 00 00 00       	mov    $0x25,%eax
  40803d:	c3                   	retq   
  40803e:	48 81 ff 00 20 00 00 	cmp    $0x2000,%rdi
  408045:	73 06                	jae    40804d <lowfat_heap_select+0x24d>
  408047:	b8 26 00 00 00       	mov    $0x26,%eax
  40804c:	c3                   	retq   
  40804d:	48 81 ff 10 20 00 00 	cmp    $0x2010,%rdi
  408054:	73 06                	jae    40805c <lowfat_heap_select+0x25c>
  408056:	b8 27 00 00 00       	mov    $0x27,%eax
  40805b:	c3                   	retq   
  40805c:	48 81 ff 00 28 00 00 	cmp    $0x2800,%rdi
  408063:	73 06                	jae    40806b <lowfat_heap_select+0x26b>
  408065:	b8 28 00 00 00       	mov    $0x28,%eax
  40806a:	c3                   	retq   
  40806b:	48 81 ff 00 30 00 00 	cmp    $0x3000,%rdi
  408072:	73 06                	jae    40807a <lowfat_heap_select+0x27a>
  408074:	b8 29 00 00 00       	mov    $0x29,%eax
  408079:	c3                   	retq   
  40807a:	48 81 ff 00 40 00 00 	cmp    $0x4000,%rdi
  408081:	73 06                	jae    408089 <lowfat_heap_select+0x289>
  408083:	b8 2a 00 00 00       	mov    $0x2a,%eax
  408088:	c3                   	retq   
  408089:	48 81 ff 00 80 00 00 	cmp    $0x8000,%rdi
  408090:	73 06                	jae    408098 <lowfat_heap_select+0x298>
  408092:	b8 2b 00 00 00       	mov    $0x2b,%eax
  408097:	c3                   	retq   
  408098:	48 81 ff 00 00 01 00 	cmp    $0x10000,%rdi
  40809f:	73 06                	jae    4080a7 <lowfat_heap_select+0x2a7>
  4080a1:	b8 2c 00 00 00       	mov    $0x2c,%eax
  4080a6:	c3                   	retq   
  4080a7:	48 81 ff 00 00 02 00 	cmp    $0x20000,%rdi
  4080ae:	73 06                	jae    4080b6 <lowfat_heap_select+0x2b6>
  4080b0:	b8 2d 00 00 00       	mov    $0x2d,%eax
  4080b5:	c3                   	retq   
  4080b6:	48 81 ff 00 00 04 00 	cmp    $0x40000,%rdi
  4080bd:	73 06                	jae    4080c5 <lowfat_heap_select+0x2c5>
  4080bf:	b8 2e 00 00 00       	mov    $0x2e,%eax
  4080c4:	c3                   	retq   
  4080c5:	48 81 ff 00 00 08 00 	cmp    $0x80000,%rdi
  4080cc:	73 06                	jae    4080d4 <lowfat_heap_select+0x2d4>
  4080ce:	b8 2f 00 00 00       	mov    $0x2f,%eax
  4080d3:	c3                   	retq   
  4080d4:	48 81 ff 00 00 10 00 	cmp    $0x100000,%rdi
  4080db:	73 06                	jae    4080e3 <lowfat_heap_select+0x2e3>
  4080dd:	b8 30 00 00 00       	mov    $0x30,%eax
  4080e2:	c3                   	retq   
  4080e3:	48 81 ff 00 00 20 00 	cmp    $0x200000,%rdi
  4080ea:	73 06                	jae    4080f2 <lowfat_heap_select+0x2f2>
  4080ec:	b8 31 00 00 00       	mov    $0x31,%eax
  4080f1:	c3                   	retq   
  4080f2:	48 81 ff 00 00 40 00 	cmp    $0x400000,%rdi
  4080f9:	73 06                	jae    408101 <lowfat_heap_select+0x301>
  4080fb:	b8 32 00 00 00       	mov    $0x32,%eax
  408100:	c3                   	retq   
  408101:	48 81 ff ff ff 7f 00 	cmp    $0x7fffff,%rdi
  408108:	73 06                	jae    408110 <lowfat_heap_select+0x310>
  40810a:	b8 33 00 00 00       	mov    $0x33,%eax
  40810f:	c3                   	retq   
  408110:	48 81 ff fd ff ff 00 	cmp    $0xfffffd,%rdi
  408117:	73 06                	jae    40811f <lowfat_heap_select+0x31f>
  408119:	b8 34 00 00 00       	mov    $0x34,%eax
  40811e:	c3                   	retq   
  40811f:	48 81 ff fa ff ff 01 	cmp    $0x1fffffa,%rdi
  408126:	73 06                	jae    40812e <lowfat_heap_select+0x32e>
  408128:	b8 35 00 00 00       	mov    $0x35,%eax
  40812d:	c3                   	retq   
  40812e:	48 81 ff f3 ff ff 03 	cmp    $0x3fffff3,%rdi
  408135:	73 06                	jae    40813d <lowfat_heap_select+0x33d>
  408137:	b8 36 00 00 00       	mov    $0x36,%eax
  40813c:	c3                   	retq   
  40813d:	48 81 ff e4 ff ff 07 	cmp    $0x7ffffe4,%rdi
  408144:	73 06                	jae    40814c <lowfat_heap_select+0x34c>
  408146:	b8 37 00 00 00       	mov    $0x37,%eax
  40814b:	c3                   	retq   
  40814c:	48 81 ff c7 ff ff 0f 	cmp    $0xfffffc7,%rdi
  408153:	73 06                	jae    40815b <lowfat_heap_select+0x35b>
  408155:	b8 38 00 00 00       	mov    $0x38,%eax
  40815a:	c3                   	retq   
  40815b:	48 81 ff 8c ff ff 1f 	cmp    $0x1fffff8c,%rdi
  408162:	73 06                	jae    40816a <lowfat_heap_select+0x36a>
  408164:	b8 39 00 00 00       	mov    $0x39,%eax
  408169:	c3                   	retq   
  40816a:	48 81 ff 14 ff ff 3f 	cmp    $0x3fffff14,%rdi
  408171:	73 06                	jae    408179 <lowfat_heap_select+0x379>
  408173:	b8 3a 00 00 00       	mov    $0x3a,%eax
  408178:	c3                   	retq   
  408179:	48 81 ff 20 fe ff 7f 	cmp    $0x7ffffe20,%rdi
  408180:	73 06                	jae    408188 <lowfat_heap_select+0x388>
  408182:	b8 3b 00 00 00       	mov    $0x3b,%eax
  408187:	c3                   	retq   
  408188:	48 89 f8             	mov    %rdi,%rax
  40818b:	48 c1 e8 04          	shr    $0x4,%rax
  40818f:	48 3d c3 ff ff 0f    	cmp    $0xfffffc3,%rax
  408195:	73 06                	jae    40819d <lowfat_heap_select+0x39d>
  408197:	b8 3c 00 00 00       	mov    $0x3c,%eax
  40819c:	c3                   	retq   
  40819d:	48 b8 3d f8 ff ff 01 	movabs $0x1fffff83d,%rax
  4081a4:	00 00 00 
  4081a7:	48 39 c7             	cmp    %rax,%rdi
  4081aa:	73 06                	jae    4081b2 <lowfat_heap_select+0x3b2>
  4081ac:	b8 3d 00 00 00       	mov    $0x3d,%eax
  4081b1:	c3                   	retq   
  4081b2:	48 b8 31 f0 ff ff 03 	movabs $0x3fffff031,%rax
  4081b9:	00 00 00 
  4081bc:	48 39 c7             	cmp    %rax,%rdi
  4081bf:	73 06                	jae    4081c7 <lowfat_heap_select+0x3c7>
  4081c1:	b8 3e 00 00 00       	mov    $0x3e,%eax
  4081c6:	c3                   	retq   
  4081c7:	31 c0                	xor    %eax,%eax
  4081c9:	c3                   	retq   
  4081ca:	66 0f 1f 44 00 00    	nopw   0x0(%rax,%rax,1)

00000000004081d0 <lowfat_malloc_index>:
  4081d0:	55                   	push   %rbp
  4081d1:	41 57                	push   %r15
  4081d3:	41 56                	push   %r14
  4081d5:	41 55                	push   %r13
  4081d7:	41 54                	push   %r12
  4081d9:	53                   	push   %rbx
  4081da:	50                   	push   %rax
  4081db:	49 89 f6             	mov    %rsi,%r14
  4081de:	48 85 ff             	test   %rdi,%rdi
  4081e1:	74 60                	je     408243 <lowfat_malloc_index+0x73>
  4081e3:	4c 8b 24 fd 00 00 20 	mov    0x200000(,%rdi,8),%r12
  4081ea:	00 
  4081eb:	48 8d 1c ff          	lea    (%rdi,%rdi,8),%rbx
  4081ef:	48 bd 90 05 41 00 00 	movabs $0x410590,%rbp
  4081f6:	00 00 00 
  4081f9:	4c 8d 7c dd 00       	lea    0x0(%rbp,%rbx,8),%r15
  4081fe:	48 b8 50 40 40 00 00 	movabs $0x404050,%rax
  408205:	00 00 00 
  408208:	4c 89 ff             	mov    %r15,%rdi
  40820b:	ff d0                	callq  *%rax
  40820d:	4c 8b 6c dd 28       	mov    0x28(%rbp,%rbx,8),%r13
  408212:	4d 85 ed             	test   %r13,%r13
  408215:	74 0e                	je     408225 <lowfat_malloc_index+0x55>
  408217:	48 8d 44 dd 28       	lea    0x28(%rbp,%rbx,8),%rax
  40821c:	49 8b 4d 08          	mov    0x8(%r13),%rcx
  408220:	48 89 08             	mov    %rcx,(%rax)
  408223:	eb 75                	jmp    40829a <lowfat_malloc_index+0xca>
  408225:	4c 8b 6c dd 30       	mov    0x30(%rbp,%rbx,8),%r13
  40822a:	4d 01 ec             	add    %r13,%r12
  40822d:	4c 3b 64 dd 38       	cmp    0x38(%rbp,%rbx,8),%r12
  408232:	76 5e                	jbe    408292 <lowfat_malloc_index+0xc2>
  408234:	48 b8 10 3f 40 00 00 	movabs $0x403f10,%rax
  40823b:	00 00 00 
  40823e:	4c 89 ff             	mov    %r15,%rdi
  408241:	ff d0                	callq  *%rax
  408243:	48 b8 d0 40 40 00 00 	movabs $0x4040d0,%rax
  40824a:	00 00 00 
  40824d:	4c 89 f7             	mov    %r14,%rdi
  408250:	ff d0                	callq  *%rax
  408252:	49 89 c5             	mov    %rax,%r13
  408255:	4d 85 ed             	test   %r13,%r13
  408258:	75 4f                	jne    4082a9 <lowfat_malloc_index+0xd9>
  40825a:	48 b8 10 3e 40 00 00 	movabs $0x403e10,%rax
  408261:	00 00 00 
  408264:	ff d0                	callq  *%rax
  408266:	8b 38                	mov    (%rax),%edi
  408268:	48 b8 20 3e 40 00 00 	movabs $0x403e20,%rax
  40826f:	00 00 00 
  408272:	ff d0                	callq  *%rax
  408274:	48 89 c1             	mov    %rax,%rcx
  408277:	48 bf af af 40 00 00 	movabs $0x40afaf,%rdi
  40827e:	00 00 00 
  408281:	48 ba 40 78 40 00 00 	movabs $0x407840,%rdx
  408288:	00 00 00 
  40828b:	31 c0                	xor    %eax,%eax
  40828d:	48 89 ce             	mov    %rcx,%rsi
  408290:	ff d2                	callq  *%rdx
  408292:	48 8d 44 dd 30       	lea    0x30(%rbp,%rbx,8),%rax
  408297:	4c 89 20             	mov    %r12,(%rax)
  40829a:	48 b8 10 3f 40 00 00 	movabs $0x403f10,%rax
  4082a1:	00 00 00 
  4082a4:	4c 89 ff             	mov    %r15,%rdi
  4082a7:	ff d0                	callq  *%rax
  4082a9:	4c 89 e8             	mov    %r13,%rax
  4082ac:	48 83 c4 08          	add    $0x8,%rsp
  4082b0:	5b                   	pop    %rbx
  4082b1:	41 5c                	pop    %r12
  4082b3:	41 5d                	pop    %r13
  4082b5:	41 5e                	pop    %r14
  4082b7:	41 5f                	pop    %r15
  4082b9:	5d                   	pop    %rbp
  4082ba:	c3                   	retq   
  4082bb:	0f 1f 44 00 00       	nopl   0x0(%rax,%rax,1)

00000000004082c0 <lowfat__ZdaPv>:
  4082c0:	41 57                	push   %r15
  4082c2:	41 56                	push   %r14
  4082c4:	41 54                	push   %r12
  4082c6:	53                   	push   %rbx
  4082c7:	50                   	push   %rax
  4082c8:	49 89 fe             	mov    %rdi,%r14
  4082cb:	4d 85 f6             	test   %r14,%r14
  4082ce:	0f 84 de 00 00 00    	je     4083b2 <lowfat__ZdaPv+0xf2>
  4082d4:	4c 89 f3             	mov    %r14,%rbx
  4082d7:	48 c1 eb 24          	shr    $0x24,%rbx
  4082db:	48 8d 43 ff          	lea    -0x1(%rbx),%rax
  4082df:	48 83 f8 3f          	cmp    $0x3f,%rax
  4082e3:	0f 83 d5 00 00 00    	jae    4083be <lowfat__ZdaPv+0xfe>
  4082e9:	41 bc 00 00 20 00    	mov    $0x200000,%r12d
  4082ef:	48 89 d8             	mov    %rbx,%rax
  4082f2:	48 c1 e0 24          	shl    $0x24,%rax
  4082f6:	48 b9 00 00 ff ff 07 	movabs $0x7ffff0000,%rcx
  4082fd:	00 00 00 
  408300:	48 09 c8             	or     %rcx,%rax
  408303:	4c 29 f0             	sub    %r14,%rax
  408306:	48 ff c1             	inc    %rcx
  408309:	48 39 c8             	cmp    %rcx,%rax
  40830c:	0f 83 c6 00 00 00    	jae    4083d8 <lowfat__ZdaPv+0x118>
  408312:	4c 89 f0             	mov    %r14,%rax
  408315:	49 f7 a4 dc 00 00 10 	mulq   0x100000(%r12,%rbx,8)
  40831c:	00 
  40831d:	49 89 d7             	mov    %rdx,%r15
  408320:	4d 0f af 3c dc       	imul   (%r12,%rbx,8),%r15
  408325:	4c 89 fb             	mov    %r15,%rbx
  408328:	48 c1 eb 24          	shr    $0x24,%rbx
  40832c:	49 8b 04 dc          	mov    (%r12,%rbx,8),%rax
  408330:	48 3d 00 30 00 00    	cmp    $0x3000,%rax
  408336:	72 3f                	jb     408377 <lowfat__ZdaPv+0xb7>
  408338:	44 89 f9             	mov    %r15d,%ecx
  40833b:	81 e1 ff 0f 00 00    	and    $0xfff,%ecx
  408341:	4c 89 ff             	mov    %r15,%rdi
  408344:	48 29 cf             	sub    %rcx,%rdi
  408347:	49 8d 0c 07          	lea    (%r15,%rax,1),%rcx
  40834b:	81 e1 ff 0f 00 00    	and    $0xfff,%ecx
  408351:	48 01 f9             	add    %rdi,%rcx
  408354:	48 81 c7 00 10 00 00 	add    $0x1000,%rdi
  40835b:	49 8d b4 07 00 f0 ff 	lea    -0x1000(%r15,%rax,1),%rsi
  408362:	ff 
  408363:	48 29 ce             	sub    %rcx,%rsi
  408366:	48 b8 90 3f 40 00 00 	movabs $0x403f90,%rax
  40836d:	00 00 00 
  408370:	ba 04 00 00 00       	mov    $0x4,%edx
  408375:	ff d0                	callq  *%rax
  408377:	48 8d 1c db          	lea    (%rbx,%rbx,8),%rbx
  40837b:	49 bc 90 05 41 00 00 	movabs $0x410590,%r12
  408382:	00 00 00 
  408385:	4d 8d 34 dc          	lea    (%r12,%rbx,8),%r14
  408389:	48 b8 50 40 40 00 00 	movabs $0x404050,%rax
  408390:	00 00 00 
  408393:	4c 89 f7             	mov    %r14,%rdi
  408396:	ff d0                	callq  *%rax
  408398:	49 8b 44 dc 28       	mov    0x28(%r12,%rbx,8),%rax
  40839d:	49 89 47 08          	mov    %rax,0x8(%r15)
  4083a1:	4d 89 7c dc 28       	mov    %r15,0x28(%r12,%rbx,8)
  4083a6:	48 b8 10 3f 40 00 00 	movabs $0x403f10,%rax
  4083ad:	00 00 00 
  4083b0:	eb 16                	jmp    4083c8 <lowfat__ZdaPv+0x108>
  4083b2:	48 83 c4 08          	add    $0x8,%rsp
  4083b6:	5b                   	pop    %rbx
  4083b7:	41 5c                	pop    %r12
  4083b9:	41 5e                	pop    %r14
  4083bb:	41 5f                	pop    %r15
  4083bd:	c3                   	retq   
  4083be:	48 b8 00 40 40 00 00 	movabs $0x404000,%rax
  4083c5:	00 00 00 
  4083c8:	4c 89 f7             	mov    %r14,%rdi
  4083cb:	48 83 c4 08          	add    $0x8,%rsp
  4083cf:	5b                   	pop    %rbx
  4083d0:	41 5c                	pop    %r12
  4083d2:	41 5e                	pop    %r14
  4083d4:	41 5f                	pop    %r15
  4083d6:	ff e0                	jmpq   *%rax
  4083d8:	48 b8 90 84 40 00 00 	movabs $0x408490,%rax
  4083df:	00 00 00 
  4083e2:	4c 89 f7             	mov    %r14,%rdi
  4083e5:	ff d0                	callq  *%rax
  4083e7:	48 b9 a3 ac 40 00 00 	movabs $0x40aca3,%rcx
  4083ee:	00 00 00 
  4083f1:	48 be cb a8 40 00 00 	movabs $0x40a8cb,%rsi
  4083f8:	00 00 00 
  4083fb:	84 c0                	test   %al,%al
  4083fd:	48 0f 45 f1          	cmovne %rcx,%rsi
  408401:	4c 89 f0             	mov    %r14,%rax
  408404:	49 f7 a4 dc 00 00 10 	mulq   0x100000(%r12,%rbx,8)
  40840b:	00 
  40840c:	4d 8b 0c dc          	mov    (%r12,%rbx,8),%r9
  408410:	49 0f af d1          	imul   %r9,%rdx
  408414:	48 bf 0f ad 40 00 00 	movabs $0x40ad0f,%rdi
  40841b:	00 00 00 
  40841e:	48 bb 40 78 40 00 00 	movabs $0x407840,%rbx
  408425:	00 00 00 
  408428:	31 c0                	xor    %eax,%eax
  40842a:	49 89 d0             	mov    %rdx,%r8
  40842d:	4c 89 f2             	mov    %r14,%rdx
  408430:	48 89 f1             	mov    %rsi,%rcx
  408433:	ff d3                	callq  *%rbx
  408435:	66 2e 0f 1f 84 00 00 	nopw   %cs:0x0(%rax,%rax,1)
  40843c:	00 00 00 
  40843f:	90                   	nop

0000000000408440 <lowfat_is_ptr>:
  408440:	48 c1 ef 24          	shr    $0x24,%rdi
  408444:	48 ff cf             	dec    %rdi
  408447:	48 83 ff 3f          	cmp    $0x3f,%rdi
  40844b:	0f 92 c0             	setb   %al
  40844e:	c3                   	retq   
  40844f:	90                   	nop

0000000000408450 <lowfat_is_heap_ptr>:
  408450:	48 89 f8             	mov    %rdi,%rax
  408453:	48 c1 e8 24          	shr    $0x24,%rax
  408457:	48 8d 48 ff          	lea    -0x1(%rax),%rcx
  40845b:	48 83 f9 3e          	cmp    $0x3e,%rcx
  40845f:	77 1e                	ja     40847f <lowfat_is_heap_ptr+0x2f>
  408461:	48 c1 e0 24          	shl    $0x24,%rax
  408465:	48 b9 00 00 ff ff 07 	movabs $0x7ffff0000,%rcx
  40846c:	00 00 00 
  40846f:	48 09 c8             	or     %rcx,%rax
  408472:	48 29 f8             	sub    %rdi,%rax
  408475:	48 ff c1             	inc    %rcx
  408478:	48 39 c8             	cmp    %rcx,%rax
  40847b:	0f 92 c0             	setb   %al
  40847e:	c3                   	retq   
  40847f:	31 c0                	xor    %eax,%eax
  408481:	c3                   	retq   
  408482:	66 2e 0f 1f 84 00 00 	nopw   %cs:0x0(%rax,%rax,1)
  408489:	00 00 00 
  40848c:	0f 1f 40 00          	nopl   0x0(%rax)

0000000000408490 <lowfat_is_stack_ptr>:
  408490:	48 89 f8             	mov    %rdi,%rax
  408493:	48 c1 e8 24          	shr    $0x24,%rax
  408497:	48 8d 48 ff          	lea    -0x1(%rax),%rcx
  40849b:	48 83 f9 3e          	cmp    $0x3e,%rcx
  40849f:	77 25                	ja     4084c6 <lowfat_is_stack_ptr+0x36>
  4084a1:	48 c1 e0 24          	shl    $0x24,%rax
  4084a5:	48 b9 00 00 00 00 10 	movabs $0x1000000000,%rcx
  4084ac:	00 00 00 
  4084af:	48 29 f9             	sub    %rdi,%rcx
  4084b2:	48 01 c1             	add    %rax,%rcx
  4084b5:	48 b8 01 00 00 00 04 	movabs $0x400000001,%rax
  4084bc:	00 00 00 
  4084bf:	48 39 c1             	cmp    %rax,%rcx
  4084c2:	0f 92 c0             	setb   %al
  4084c5:	c3                   	retq   
  4084c6:	31 c0                	xor    %eax,%eax
  4084c8:	c3                   	retq   
  4084c9:	0f 1f 80 00 00 00 00 	nopl   0x0(%rax)

00000000004084d0 <lowfat_realloc>:
  4084d0:	41 57                	push   %r15
  4084d2:	41 56                	push   %r14
  4084d4:	41 54                	push   %r12
  4084d6:	53                   	push   %rbx
  4084d7:	50                   	push   %rax
  4084d8:	48 89 f3             	mov    %rsi,%rbx
  4084db:	49 89 fe             	mov    %rdi,%r14
  4084de:	4d 85 f6             	test   %r14,%r14
  4084e1:	0f 84 82 00 00 00    	je     408569 <lowfat_realloc+0x99>
  4084e7:	48 85 db             	test   %rbx,%rbx
  4084ea:	74 7d                	je     408569 <lowfat_realloc+0x99>
  4084ec:	4d 89 f4             	mov    %r14,%r12
  4084ef:	49 c1 ec 24          	shr    $0x24,%r12
  4084f3:	49 8d 44 24 ff       	lea    -0x1(%r12),%rax
  4084f8:	48 83 f8 3e          	cmp    $0x3e,%rax
  4084fc:	0f 87 93 00 00 00    	ja     408595 <lowfat_realloc+0xc5>
  408502:	48 b8 00 7e 40 00 00 	movabs $0x407e00,%rax
  408509:	00 00 00 
  40850c:	48 89 df             	mov    %rbx,%rdi
  40850f:	ff d0                	callq  *%rax
  408511:	49 39 c4             	cmp    %rax,%r12
  408514:	0f 84 9b 00 00 00    	je     4085b5 <lowfat_realloc+0xe5>
  40851a:	48 b9 d0 81 40 00 00 	movabs $0x4081d0,%rcx
  408521:	00 00 00 
  408524:	48 89 c7             	mov    %rax,%rdi
  408527:	48 89 de             	mov    %rbx,%rsi
  40852a:	ff d1                	callq  *%rcx
  40852c:	49 89 c7             	mov    %rax,%r15
  40852f:	4d 85 ff             	test   %r15,%r15
  408532:	74 7e                	je     4085b2 <lowfat_realloc+0xe2>
  408534:	4a 8b 14 e5 00 00 20 	mov    0x200000(,%r12,8),%rdx
  40853b:	00 
  40853c:	48 39 da             	cmp    %rbx,%rdx
  40853f:	48 0f 47 d3          	cmova  %rbx,%rdx
  408543:	48 b8 20 3f 40 00 00 	movabs $0x403f20,%rax
  40854a:	00 00 00 
  40854d:	4c 89 ff             	mov    %r15,%rdi
  408550:	4c 89 f6             	mov    %r14,%rsi
  408553:	ff d0                	callq  *%rax
  408555:	48 b8 c0 82 40 00 00 	movabs $0x4082c0,%rax
  40855c:	00 00 00 
  40855f:	4c 89 f7             	mov    %r14,%rdi
  408562:	ff d0                	callq  *%rax
  408564:	4d 89 fe             	mov    %r15,%r14
  408567:	eb 4c                	jmp    4085b5 <lowfat_realloc+0xe5>
  408569:	48 b8 00 7e 40 00 00 	movabs $0x407e00,%rax
  408570:	00 00 00 
  408573:	48 89 df             	mov    %rbx,%rdi
  408576:	ff d0                	callq  *%rax
  408578:	48 b9 d0 81 40 00 00 	movabs $0x4081d0,%rcx
  40857f:	00 00 00 
  408582:	48 89 c7             	mov    %rax,%rdi
  408585:	48 89 de             	mov    %rbx,%rsi
  408588:	48 83 c4 08          	add    $0x8,%rsp
  40858c:	5b                   	pop    %rbx
  40858d:	41 5c                	pop    %r12
  40858f:	41 5e                	pop    %r14
  408591:	41 5f                	pop    %r15
  408593:	ff e1                	jmpq   *%rcx
  408595:	48 b8 30 3f 40 00 00 	movabs $0x403f30,%rax
  40859c:	00 00 00 
  40859f:	4c 89 f7             	mov    %r14,%rdi
  4085a2:	48 89 de             	mov    %rbx,%rsi
  4085a5:	48 83 c4 08          	add    $0x8,%rsp
  4085a9:	5b                   	pop    %rbx
  4085aa:	41 5c                	pop    %r12
  4085ac:	41 5e                	pop    %r14
  4085ae:	41 5f                	pop    %r15
  4085b0:	ff e0                	jmpq   *%rax
  4085b2:	45 31 f6             	xor    %r14d,%r14d
  4085b5:	4c 89 f0             	mov    %r14,%rax
  4085b8:	48 83 c4 08          	add    $0x8,%rsp
  4085bc:	5b                   	pop    %rbx
  4085bd:	41 5c                	pop    %r12
  4085bf:	41 5e                	pop    %r14
  4085c1:	41 5f                	pop    %r15
  4085c3:	c3                   	retq   
  4085c4:	66 2e 0f 1f 84 00 00 	nopw   %cs:0x0(%rax,%rax,1)
  4085cb:	00 00 00 
  4085ce:	66 90                	xchg   %ax,%ax

00000000004085d0 <lowfat_calloc>:
  4085d0:	41 56                	push   %r14
  4085d2:	53                   	push   %rbx
  4085d3:	50                   	push   %rax
  4085d4:	48 89 f3             	mov    %rsi,%rbx
  4085d7:	48 0f af df          	imul   %rdi,%rbx
  4085db:	48 b8 00 7e 40 00 00 	movabs $0x407e00,%rax
  4085e2:	00 00 00 
  4085e5:	48 89 df             	mov    %rbx,%rdi
  4085e8:	ff d0                	callq  *%rax
  4085ea:	48 b9 d0 81 40 00 00 	movabs $0x4081d0,%rcx
  4085f1:	00 00 00 
  4085f4:	48 89 c7             	mov    %rax,%rdi
  4085f7:	48 89 de             	mov    %rbx,%rsi
  4085fa:	ff d1                	callq  *%rcx
  4085fc:	49 89 c6             	mov    %rax,%r14
  4085ff:	48 b8 70 3e 40 00 00 	movabs $0x403e70,%rax
  408606:	00 00 00 
  408609:	31 f6                	xor    %esi,%esi
  40860b:	4c 89 f7             	mov    %r14,%rdi
  40860e:	48 89 da             	mov    %rbx,%rdx
  408611:	ff d0                	callq  *%rax
  408613:	4c 89 f0             	mov    %r14,%rax
  408616:	48 83 c4 08          	add    $0x8,%rsp
  40861a:	5b                   	pop    %rbx
  40861b:	41 5e                	pop    %r14
  40861d:	c3                   	retq   
  40861e:	66 90                	xchg   %ax,%ax

0000000000408620 <lowfat_posix_memalign>:
  408620:	41 57                	push   %r15
  408622:	41 56                	push   %r14
  408624:	41 54                	push   %r12
  408626:	53                   	push   %rbx
  408627:	50                   	push   %rax
  408628:	49 89 d4             	mov    %rdx,%r12
  40862b:	48 89 f3             	mov    %rsi,%rbx
  40862e:	49 89 fe             	mov    %rdi,%r14
  408631:	48 83 fb 08          	cmp    $0x8,%rbx
  408635:	0f 82 a9 00 00 00    	jb     4086e4 <lowfat_posix_memalign+0xc4>
  40863b:	4c 8d 7b ff          	lea    -0x1(%rbx),%r15
  40863f:	49 85 df             	test   %rbx,%r15
  408642:	0f 85 9c 00 00 00    	jne    4086e4 <lowfat_posix_memalign+0xc4>
  408648:	48 83 fb 10          	cmp    $0x10,%rbx
  40864c:	75 21                	jne    40866f <lowfat_posix_memalign+0x4f>
  40864e:	48 b8 00 7e 40 00 00 	movabs $0x407e00,%rax
  408655:	00 00 00 
  408658:	4c 89 e7             	mov    %r12,%rdi
  40865b:	ff d0                	callq  *%rax
  40865d:	48 b9 d0 81 40 00 00 	movabs $0x4081d0,%rcx
  408664:	00 00 00 
  408667:	48 89 c7             	mov    %rax,%rdi
  40866a:	4c 89 e6             	mov    %r12,%rsi
  40866d:	eb 24                	jmp    408693 <lowfat_posix_memalign+0x73>
  40866f:	49 39 dc             	cmp    %rbx,%r12
  408672:	73 26                	jae    40869a <lowfat_posix_memalign+0x7a>
  408674:	48 b8 00 7e 40 00 00 	movabs $0x407e00,%rax
  40867b:	00 00 00 
  40867e:	4c 89 ff             	mov    %r15,%rdi
  408681:	ff d0                	callq  *%rax
  408683:	48 b9 d0 81 40 00 00 	movabs $0x4081d0,%rcx
  40868a:	00 00 00 
  40868d:	48 89 c7             	mov    %rax,%rdi
  408690:	4c 89 fe             	mov    %r15,%rsi
  408693:	ff d1                	callq  *%rcx
  408695:	48 89 c3             	mov    %rax,%rbx
  408698:	eb 39                	jmp    4086d3 <lowfat_posix_memalign+0xb3>
  40869a:	4d 01 e7             	add    %r12,%r15
  40869d:	48 b8 00 7e 40 00 00 	movabs $0x407e00,%rax
  4086a4:	00 00 00 
